(dp1
F7.897705078125
(lp2
F0.094987000000000002
aF0.62617599999999995
asF13.0224609375
(lp3
F0.107502
aF0.59968200000000005
asF4.3724210262298584
(lp4
F-0.0033319999999999999
aF0.0067860000000000004
asF21.834929943084717
(lp5
F-0.0099609999999999994
aF0.32643
asF-0.0029339790344238281
(lp6
F-0.0010139999999999999
aF0.0055290000000000001
asF23.009567975997925
(lp7
F-0.032159
aF-0.65758300000000003
asF1.0345919132232666
(lp8
F0.001531
aF0.0047829999999999999
asF19.109833002090454
(lp9
F0.33659299999999998
aF-0.179227
asF3.5720679759979248
(lp10
F0.00055599999999999996
aF0.003777
asF4.2346310615539551
(lp11
F-0.001305
aF0.0049789999999999999
asF12.272156000137329
(lp12
F-0.10674599999999999
aF0.72970800000000002
asF17.209604978561401
(lp13
F-0.11287899999999999
aF0.61882300000000001
asF0.7473759651184082
(lp14
F0.00060999999999999997
aF0.005208
asF14.647363901138306
(lp15
F-0.39199600000000001
aF-0.69700600000000001
asF22.347340106964111
(lp16
F0.174703
aF-0.47973399999999999
asF4.6100800037384033
(lp17
F0.060835
aF0.040869000000000003
asF4.4722330570220947
(lp18
F-0.0022439999999999999
aF0.0062259999999999998
asF6.4470140933990479
(lp19
F0.116151
aF-0.87483299999999997
asF15.922404050827026
(lp20
F0.007796
aF0.39701900000000001
asF20.560151100158691
(lp21
F-0.27589200000000003
aF0.68204799999999999
asF3.1974070072174072
(lp22
F-0.00027599999999999999
aF0.0045339999999999998
asF17.622040987014771
(lp23
F0.216197
aF0.24212400000000001
asF2.6974380016326904
(lp24
F0.0081019999999999998
aF0.013854999999999999
asF1.747744083404541
(lp25
F-0.002055
aF0.0025639999999999999
asF21.647339105606079
(lp26
F0.615846
aF0.43989800000000001
asF1.6971158981323242
(lp27
F-0.0055519999999999996
aF0.00282
asF4.8596110343933105
(lp28
F0.46005800000000002
aF0.024065
asF6.0721859931945801
(lp29
F0.43121599999999999
aF-0.49791099999999999
asF3.5345981121063232
(lp30
F-0.00021699999999999999
aF0.0040379999999999999
asF23.435081005096436
(lp31
F-0.050191
aF-0.63339699999999999
asF19.147057056427002
(lp32
F-0.098404000000000005
aF-0.74758100000000005
asF9.3097391128540039
(lp33
F0.073231000000000004
aF-0.13401299999999999
asF7.8471019268035889
(lp34
F0.42935099999999998
aF0.57152800000000004
asF20.222105026245117
(lp35
F0.091920000000000002
aF0.24252099999999999
asF17.472167015075684
(lp36
F0.075245999999999993
aF0.26316899999999999
asF5.2724161148071289
(lp37
F0.22626099999999999
aF0.0047720000000000002
asF18.097048044204712
(lp38
F0.095440999999999998
aF-0.4325
asF20.372138977050781
(lp39
F0.23841399999999999
aF0.38100099999999998
asF6.7097649574279785
(lp40
F-0.34034199999999998
aF-0.89102700000000001
asF22.447062969207764
(lp41
F0.045999999999999999
aF-0.53950500000000001
asF1.7849318981170654
(lp42
F-0.001854
aF0.0030839999999999999
asF18.909822940826416
(lp43
F-0.11985999999999999
aF-0.069208000000000006
asF18.872380971908569
(lp44
F-0.042368000000000003
aF-0.19276099999999999
asF15.872368097305298
(lp45
F-0.027709999999999999
aF0.30046600000000001
asF17.80957293510437
(lp46
F0.150921
aF-0.107457
asF3.3471019268035889
(lp47
F-0.000203
aF0.0036700000000000001
asF13.884823083877563
(lp48
F0.013077999999999999
aF-0.17425199999999999
asF7.5095579624176025
(lp49
F-0.257801
aF0.49155100000000002
asF10.072144985198975
(lp50
F-0.0040800000000000003
aF-0.40090900000000002
asF14.009926080703735
(lp51
F0.19137499999999999
aF-0.35242699999999999
asF16.297457933425903
(lp52
F0.26014900000000002
aF0.70566099999999998
asF15.447102069854736
(lp53
F0.11509
aF-0.61508799999999997
asF1.9346530437469482
(lp54
F0.000444
aF0.003258
asF7.0220749378204346
(lp55
F-0.118002
aF-0.54944599999999999
asF16.80952000617981
(lp56
F-0.096353999999999995
aF0.59536
asF12.372550010681152
(lp57
F-0.67369100000000004
aF0.51909499999999997
asF14.297157049179077
(lp58
F0.19190099999999999
aF-0.62209899999999996
asF0.37281203269958496
(lp59
F0.0029940000000000001
aF0.004385
asF15.772119045257568
(lp60
F-0.134075
aF0.087017999999999998
asF17.434634923934937
(lp61
F0.152869
aF0.29531600000000002
asF2.3223409652709961
(lp62
F0.003836
aF0.0055750000000000001
asF12.409543037414551
(lp63
F-0.54784699999999997
aF0.51378500000000005
asF7.5595560073852539
(lp64
F-0.018440999999999999
aF0.30301800000000001
asF15.397089958190918
(lp65
F-0.15950900000000001
aF-0.52716700000000005
asF12.934859991073608
(lp66
F0.101988
aF0.65753899999999998
asF12.03472900390625
(lp67
F-0.530972
aF0.47058499999999998
asF11.984560012817383
(lp68
F-0.526169
aF0.44991599999999998
asF10.335176944732666
(lp69
F-0.15337200000000001
aF-0.34719299999999997
asF15.159976959228516
(lp70
F0.06565
aF-0.70664099999999996
asF9.9595839977264404
(lp71
F0.36192400000000002
aF-0.58444099999999999
asF4.6720249652862549
(lp72
F0.19561200000000001
aF0.084337999999999996
asF2.9599471092224121
(lp73
F0.0024420000000000002
aF0.0079349999999999993
asF14.259783029556274
(lp74
F0.34090599999999999
aF-0.62313499999999999
asF20.597409963607788
(lp75
F-0.156004
aF0.63609000000000004
asF6.3096439838409424
(lp76
F0.198545
aF-0.70613599999999999
asF21.272109985351562
(lp77
F0.055883000000000002
aF0.59623300000000001
asF15.635093927383423
(lp78
F0.021114999999999998
aF-0.17324100000000001
asF10.059731960296631
(lp79
F-0.046982999999999997
aF-0.42310900000000001
asF16.572727918624878
(lp80
F-0.19570899999999999
aF0.36028100000000002
asF23.572057962417603
(lp81
F-0.56543500000000002
aF-0.60149900000000001
asF23.472054958343506
(lp82
F-0.137438
aF-0.64813399999999999
asF14.734555959701538
(lp83
F-0.37135600000000002
aF-0.80816500000000002
asF11.472322940826416
(lp84
F0.052512000000000003
aF-0.19529299999999999
asF11.659536123275757
(lp85
F0.0062500000000000003
aF0.111529
asF10.385138034820557
(lp86
F-0.081152000000000002
aF-0.29367799999999999
asF7.7472150325775146
(lp87
F0.63172700000000004
aF0.50787199999999999
asF8.8971109390258789
(lp88
F0.313996
aF0.33528599999999997
asF7.7975699901580811
(lp89
F-0.22292999999999999
aF0.29700900000000002
asF10.147358894348145
(lp90
F-0.45117000000000002
aF-0.21787799999999999
asF14.972127914428711
(lp91
F0.077576000000000006
aF-0.748749
asF12.459749937057495
(lp92
F-0.46780100000000002
aF0.47788999999999998
asF20.134680032730103
(lp93
F0.100809
aF0.125167
asF1.4722089767456055
(lp94
F-0.0099670000000000002
aF0.001523
asF17.097142934799194
(lp95
F-0.425873
aF0.68216299999999996
asF5.9345579147338867
(lp96
F0.42597600000000002
aF-0.52875300000000003
asF18.759879112243652
(lp97
F0.09375
aF-0.22325800000000001
asF22.109841108322144
(lp98
F-0.121785
aF-0.05083
asF6.4976489543914795
(lp99
F-0.335953
aF-1.0023310000000001
asF11.722064018249512
(lp100
F-0.033396000000000002
aF0.110434
asF6.9348490238189697
(lp101
F-0.232352
aF-0.69206999999999996
asF22.634627103805542
(lp102
F-0.017410999999999999
aF-0.59914100000000003
asF19.984601020812988
(lp103
F-0.060070999999999999
aF-0.031734999999999999
asF19.335272073745728
(lp104
F-0.25651299999999999
aF-0.60646900000000004
asF22.247385025024414
(lp105
F0.112623
aF-0.161998
asF12.747042894363403
(lp106
F-0.117067
aF0.51059200000000005
asF17.709544897079468
(lp107
F0.26753399999999999
aF-0.063558000000000003
asF13.397529125213623
(lp108
F0.159941
aF0.24770300000000001
asF0.33496308326721191
(lp109
F0.0023440000000000002
aF0.0044260000000000002
asF9.2726221084594727
(lp110
F0.094059000000000004
aF-0.016799999999999999
asF20.334918975830078
(lp111
F0.18154600000000001
aF0.35212100000000002
asF8.4099531173706055
(lp112
F0.113071
aF0.76611600000000002
asF4.9974780082702637
(lp113
F0.40698800000000002
aF-0.0018140000000000001
asF3.909998893737793
(lp114
F0.0018309999999999999
aF0.0045199999999999997
asF23.334604978561401
(lp115
F-0.043017
aF-0.72624200000000005
asF8.2223849296569824
(lp116
F0.38356299999999999
aF0.69133900000000004
asF14.872164964675903
(lp117
F0.243948
aF-0.71569799999999995
asF11.297408103942871
(lp118
F-0.11595
aF-0.46891899999999997
asF21.397414922714233
(lp119
F0.278667
aF0.68777200000000005
asF3.8600950241088867
(lp120
F-0.0015529999999999999
aF0.0050959999999999998
asF19.185157060623169
(lp121
F-0.026346999999999999
aF-0.68187399999999998
asF11.709994077682495
(lp122
F0.0047429999999999998
aF0.047923
asF5.5100340843200684
(lp123
F0.072150000000000006
aF-0.205237
asF23.497062921524048
(lp124
F-0.120479
aF-0.62840399999999996
asF8.6972250938415527
(lp125
F0.0087770000000000001
aF0.50353999999999999
asF10.672094106674194
(lp126
F-0.29674499999999998
aF-0.37221599999999999
asF1.0972280502319336
(lp127
F0.0024859999999999999
aF0.0051549999999999999
asF20.697048902511597
(lp128
F-0.22742699999999999
aF0.55637400000000004
asF13.160281896591187
(lp129
F0.087817000000000006
aF0.480794
asF8.6470251083374023
(lp130
F0.13378100000000001
aF0.66454800000000003
asF13.347511053085327
(lp131
F0.062222
aF0.26575500000000002
asF8.709618091583252
(lp132
F-0.031146
aF0.46457500000000002
asF12.897149085998535
(lp133
F-0.042486000000000003
aF0.66622999999999999
asF3.6221299171447754
(lp134
F0.001737
aF0.003699
asF19.522041082382202
(lp135
F-0.17443700000000001
aF-0.58825700000000003
asF10.622111082077026
(lp136
F0.001183
aF-0.47789999999999999
asF9.635066032409668
(lp137
F-0.172928
aF-0.45937099999999997
asF4.8220651149749756
(lp138
F0.387513
aF0.052535999999999999
asF3.7220299243927002
(lp139
F0.00012
aF0.0058919999999999997
asF15.022459030151367
(lp140
F0.12653400000000001
aF-0.69756099999999999
asF8.1722450256347656
(lp141
F0.41986499999999999
aF0.50714700000000001
asF9.5473918914794922
(lp142
F0.047584000000000001
aF-0.39616499999999999
asF6.2223200798034668
(lp143
F0.15565999999999999
aF-0.63582899999999998
asF5.1347200870513916
(lp144
F0.57564199999999999
aF-0.025745000000000001
asF21.73456597328186
(lp145
F0.12117700000000001
aF0.345719
asF2.1720740795135498
(lp146
F0.00049799999999999996
aF0.0040549999999999996
asF17.059884071350098
(lp147
F-0.45754800000000001
aF0.73901899999999998
asF1.2721259593963623
(lp148
F0.00079699999999999997
aF0.0044140000000000004
asF12.69705605506897
(lp149
F-0.12390900000000001
aF0.458617
asF22.172384977340698
(lp150
F-0.153172
aF-0.39047100000000001
asF17.197494029998779
(lp151
F-0.028957
aF0.70394000000000001
asF10.297523975372314
(lp152
F-0.15768099999999999
aF-0.21740499999999999
asF19.047096967697144
(lp153
F-0.054648000000000002
aF-0.28664699999999999
asF15.297153949737549
(lp154
F0.028903000000000002
aF-0.71273900000000001
asF9.0850150585174561
(lp155
F0.014533000000000001
aF0.121617
asF5.747230052947998
(lp156
F-0.32794400000000001
aF-0.67659800000000003
asF2.3971290588378906
(lp157
F0.0025070000000000001
aF0.0095209999999999999
asF14.209888935089111
(lp158
F0.52959100000000003
aF-0.63284899999999999
asF8.5971579551696777
(lp159
F0.107684
aF0.639571
asF1.3227260112762451
(lp160
F0.00053799999999999996
aF0.0038679999999999999
asF15.50993800163269
(lp161
F0.0076210000000000002
aF-0.50101499999999999
asF17.659833908081055
(lp162
F0.206257
aF0.14903
asF5.6095850467681885
(lp163
F0.091824000000000003
aF-0.46767700000000001
asF5.8474090099334717
(lp164
F-0.13581099999999999
aF-0.74591799999999997
asF20.459898948669434
(lp165
F0.15170600000000001
aF0.51356800000000002
asF10.434567928314209
(lp166
F-0.17996500000000001
aF-0.49030699999999999
asF5.0099020004272461
(lp167
F0.43500800000000001
aF0.0053550000000000004
asF10.810154914855957
(lp168
F-0.24840599999999999
aF-0.37718499999999999
asF7.6473939418792725
(lp169
F0.068124000000000004
aF0.42133599999999999
asF20.50982403755188
(lp170
F0.11770700000000001
aF0.550404
asF5.3848690986633301
(lp171
F0.20383899999999999
aF-0.110068
asF18.947366952896118
(lp172
F-0.16397800000000001
aF-0.21603700000000001
asF2.359684944152832
(lp173
F0.0024299999999999999
aF0.0079030000000000003
asF17.759565114974976
(lp174
F0.22609099999999999
aF-0.115372
asF21.972407102584839
(lp175
F-0.25653599999999999
aF0.083769999999999997
asF4.8096950054168701
(lp176
F0.38956000000000002
aF0.064883999999999997
asF13.07230806350708
(lp177
F0.21534700000000001
aF0.56188099999999996
asF8.9349110126495361
(lp178
F-0.063950000000000007
aF0.46559299999999998
asF21.210160970687866
(lp179
F-0.151092
aF0.58465199999999995
asF6.1847259998321533
(lp180
F0.31770900000000002
aF-0.59097900000000003
asF17.247050046920776
(lp181
F-0.27816200000000002
aF0.41065000000000002
asF5.7974100112915039
(lp182
F0.32439099999999998
aF-0.44961200000000001
asF2.5097939968109131
(lp183
F0.0048799999999999998
aF0.012855
asF5.4595711231231689
(lp184
F0.356431
aF-0.199272
asF18.297038078308105
(lp185
F-0.44251499999999999
aF-0.69658799999999998
asF9.8224470615386963
(lp186
F-0.105965
aF-0.66595499999999996
asF6.3597650527954102
(lp187
F-0.035073
aF-0.78362799999999999
asF17.897099018096924
(lp188
F0.22483300000000001
aF-0.161381
asF19.55964207649231
(lp189
F-0.20355899999999999
aF-0.52120699999999998
asF22.497138977050781
(lp190
F0.161575
aF-0.52668199999999998
asF7.172266960144043
(lp191
F-0.19844200000000001
aF-0.242807
asF11.147207021713257
(lp192
F-0.20264099999999999
aF-0.65763300000000002
asF19.672065019607544
(lp193
F-0.38782899999999998
aF-0.48884100000000003
asF17.847394943237305
(lp194
F0.136263
aF-0.208315
asF0.047167062759399414
(lp195
F0.0014040000000000001
aF0.0040070000000000001
asF6.3720979690551758
(lp196
F0.013625999999999999
aF-0.82136299999999995
asF18.809734106063843
(lp197
F0.219554
aF-0.018665000000000001
asF19.610066890716553
(lp198
F0.183085
aF-0.333895
asF6.122128963470459
(lp199
F0.42664200000000002
aF-0.61149900000000001
asF22.359628915786743
(lp200
F0.27786899999999998
aF-0.46927099999999999
asF8.972196102142334
(lp201
F-0.130526
aF0.31566499999999997
asF3.2470850944519043
(lp202
F0.00084500000000000005
aF0.004535
asF10.259634017944336
(lp203
F-0.15337000000000001
aF-0.149261
asF14.347146034240723
(lp204
F0.35150500000000001
aF-0.60084199999999999
asF8.5096580982208252
(lp205
F0.222828
aF0.73144100000000001
asF4.4845731258392334
(lp206
F-0.0027079999999999999
aF0.0063309999999999998
asF16.534576892852783
(lp207
F-0.13381699999999999
aF0.464227
asF23.534934043884277
(lp208
F-0.13636899999999999
aF-0.53825500000000004
asF1.1346850395202637
(lp209
F0.00075799999999999999
aF0.005653
asF7.3724699020385742
(lp210
F-0.29467100000000002
aF-0.034020000000000002
asF11.097357034683228
(lp211
F-0.37063699999999999
aF-0.73105299999999995
asF19.747463941574097
(lp212
F-0.040509000000000003
aF-0.31268600000000002
asF6.6471590995788574
(lp213
F-0.69972699999999999
aF-1.1376379999999999
asF0.42233109474182129
(lp214
F0.0024759999999999999
aF0.0048240000000000002
asF8.3220300674438477
(lp215
F0.18923000000000001
aF0.74318200000000001
asF1.4102261066436768
(lp216
F-0.0052100000000000002
aF0.0027650000000000001
asF22.159840106964111
(lp217
F-0.157777
aF-0.33858700000000003
asF0.90984797477722168
(lp218
F6.0000000000000002e-05
aF0.0043059999999999999
asF23.197550058364868
(lp219
F0.033355000000000003
aF-0.72659399999999996
asF23.059629917144775
(lp220
F-0.091855000000000006
aF-0.79923699999999998
asF6.5599319934844971
(lp221
F-0.49296899999999999
aF-1.0504599999999999
asF16.072104930877686
(lp222
F-0.011923
aF0.49091400000000002
asF15.884932994842529
(lp223
F-0.012635
aF0.32564799999999999
asF12.785094976425171
(lp224
F-0.117761
aF0.54841700000000004
asF1.7097721099853516
(lp225
F-0.0044140000000000004
aF0.0024060000000000002
asF23.259860038757324
(lp226
F0.150251
aF-0.72247399999999995
asF5.1975860595703125
(lp227
F0.503444
aF0.0063400000000000001
asF4.9471070766448975
(lp228
F0.33993000000000001
aF0.026280000000000001
asF18.047508001327515
(lp229
F0.072873999999999994
aF-0.36073300000000003
asF19.847084045410156
(lp230
F-0.102938
aF-0.17566000000000001
asF6.1722440719604492
(lp231
F0.41329100000000002
aF-0.55462100000000003
asF8.4599499702453613
(lp232
F0.101503
aF0.72707299999999997
asF23.247370004653931
(lp233
F0.025409999999999999
aF-0.72390399999999999
asF14.072804927825928
(lp234
F-0.1996
aF-0.50192899999999996
asF9.6970880031585693
(lp235
F-0.13269500000000001
aF-0.53333799999999998
asF2.8220419883728027
(lp236
F0.0032499999999999999
aF0.012175999999999999
asF10.497411966323853
(lp237
F-0.28107799999999999
aF-0.58160100000000003
asF12.597098112106323
(lp238
F-0.26417800000000002
aF0.47083700000000001
asF11.184942960739136
(lp239
F-0.1449
aF-0.55022700000000002
asF14.109899997711182
(lp240
F-0.232761
aF-0.49385600000000002
asF2.4470729827880859
(lp241
F0.003869
aF0.01149
asF1.172813892364502
(lp242
F-0.00046700000000000002
aF0.0058529999999999997
asF23.622056007385254
(lp243
F-0.19337499999999999
aF-0.55788899999999997
asF20.709607124328613
(lp244
F-0.022203000000000001
aF0.60728700000000002
asF9.3474359512329102
(lp245
F0.050020000000000002
aF-0.18140800000000001
asF11.484704971313477
(lp246
F-0.027192999999999998
aF-0.260546
asF13.509866952896118
(lp247
F-0.047033999999999999
aF-0.0034380000000000001
asF18.334974050521851
(lp248
F-0.52504399999999996
aF-0.62862600000000002
asF11.897104978561401
(lp249
F-0.21095
aF0.266239
asF1.547252893447876
(lp250
F-0.007724
aF-0.00046500000000000003
asF10.472621917724609
(lp251
F-0.175429
aF-0.66273099999999996
asF10.109859943389893
(lp252
F-0.101046
aF-0.314521
asF2.7725920677185059
(lp253
F0.0064380000000000001
aF0.012019
asF14.397290945053101
(lp254
F0.134353
aF-0.60340700000000003
asF12.172110080718994
(lp255
F-0.039466000000000001
aF0.73775400000000002
asF14.45987606048584
(lp256
F-0.107915
aF-0.63510699999999998
asF8.8346390724182129
(lp257
F-0.0053070000000000001
aF0.49817
asF9.1222529411315918
(lp258
F-0.0056290000000000003
aF0.017888000000000001
asF18.14739990234375
(lp259
F-0.16561999999999999
aF-0.621085
asF22.547245979309082
(lp260
F-0.032202000000000001
aF-0.51762699999999995
asF3.9972400665283203
(lp261
F0.0034989999999999999
aF0.0036770000000000001
asF9.5096149444580078
(lp262
F0.077743000000000007
aF-0.35075400000000001
asF23.297123908996582
(lp263
F-0.029610000000000001
aF-0.803257
asF17.147023916244507
(lp264
F-0.232182
aF0.695851
asF13.734607934951782
(lp265
F-0.074718000000000007
aF-0.067942000000000002
asF10.859672069549561
(lp266
F-0.14760300000000001
aF-0.54521799999999998
asF9.4470589160919189
(lp267
F0.043693999999999997
aF-0.32133200000000001
asF16.90953803062439
(lp268
F0.016046999999999999
aF0.77507499999999996
asF11.109824895858765
(lp269
F-0.33713199999999999
aF-0.72372599999999998
asF18.472054004669189
(lp270
F-0.24349100000000001
aF-0.67921299999999996
asF18.622114896774292
(lp271
F-0.001745
aF-0.47642800000000002
asF9.734900951385498
(lp272
F-0.14250299999999999
aF-0.583009
asF13.547105073928833
(lp273
F0.072437000000000001
aF-0.021717
asF4.2970960140228271
(lp274
F-0.002846
aF0.0068440000000000003
asF0.89704799652099609
(lp275
F-0.00054600000000000004
aF0.0042249999999999996
asF21.122683048248291
(lp276
F-0.26374399999999998
aF0.60443499999999994
asF7.6096580028533936
(lp277
F-0.25108000000000003
aF0.48371500000000001
asF16.947036027908325
(lp278
F-0.028708000000000001
aF0.73116199999999998
asF19.484555959701538
(lp279
F0.025721999999999998
aF-0.60119500000000003
asF6.78525710105896
(lp280
F-0.32998300000000003
aF-0.88927500000000004
asF1.2223250865936279
(lp281
F0.00058699999999999996
aF0.0043990000000000001
asF21.347331047058105
(lp282
F0.161492
aF0.63077499999999997
asF6.897150993347168
(lp283
F-0.213757
aF-0.80788000000000004
asF12.22203803062439
(lp284
F-0.0077860000000000004
aF0.85675500000000004
asF16.19744610786438
(lp285
F-0.082311999999999996
aF0.43148900000000001
asF22.772217035293579
(lp286
F-0.23014699999999999
aF-0.66985700000000004
asF21.797441005706787
(lp287
F-0.093089000000000005
aF0.571627
asF3.1099379062652588
(lp288
F-0.005169
aF0.0066020000000000002
asF18.534641027450562
(lp289
F-0.29902400000000001
aF-0.62673000000000001
asF7.0850191116333008
(lp290
F-0.032077000000000001
aF-0.287914
asF14.79735803604126
(lp291
F-0.090076000000000003
aF-0.86609199999999997
asF2.0223500728607178
(lp292
F0.0026029999999999998
aF0.0029689999999999999
asF3.0598289966583252
(lp293
F-0.0035739999999999999
aF0.0063410000000000003
asF8.7470779418945312
(lp294
F0.13900199999999999
aF0.53164800000000001
asF17.997200012207031
(lp295
F0.18792
aF-0.25666899999999998
asF6.7472989559173584
(lp296
F-0.32605200000000001
aF-0.92569400000000002
asF20.172060966491699
(lp297
F0.101034
aF0.206424
asF22.734604120254517
(lp298
F0.034705
aF-0.67274500000000004
asF22.922162055969238
(lp299
F-0.10451199999999999
aF-0.66032299999999999
asF13.922336101531982
(lp300
F-0.13758699999999999
aF-0.34474500000000002
asF21.309608936309814
(lp301
F0.098064999999999999
aF0.59760100000000005
asF1.5973861217498779
(lp302
F-0.0085400000000000007
aF0.00020900000000000001
asF2.1345779895782471
(lp303
F0.0040239999999999998
aF0.0032629999999999998
asF9.0720751285552979
(lp304
F0.016687
aF0.187084
asF2.7347099781036377
(lp305
F0.0077159999999999998
aF0.013055000000000001
asF11.559853076934814
(lp306
F0.163769
aF-0.227467
asF18.522080898284912
(lp307
F-0.27028999999999997
aF-0.63868000000000003
asF16.34712290763855
(lp308
F0.30631999999999998
aF0.58456399999999997
asF4.1099600791931152
(lp309
F3.0000000000000001e-06
aF0.0037810000000000001
asF1.4602370262145996
(lp310
F-0.0091319999999999995
aF0.0017589999999999999
asF7.45986008644104
(lp311
F-0.239509
aF0.19806199999999999
asF7.6975290775299072
(lp312
F0.51758899999999997
aF0.469026
asF13.260061979293823
(lp313
F0.109223
aF0.41717700000000002
asF5.3721399307250977
(lp314
F0.12133099999999999
aF-0.088360999999999995
asF21.159898042678833
(lp315
F-0.27483200000000002
aF0.55527700000000002
asF22.872244119644165
(lp316
F0.121974
aF-0.58958600000000005
asF3.809575080871582
(lp317
F-0.00052700000000000002
aF0.0058219999999999999
asF6.0347471237182617
(lp318
F0.49832599999999999
aF-0.50682400000000005
asF10.684880018234253
(lp319
F-0.417987
aF-0.36257400000000001
asF7.1971840858459473
(lp320
F-0.268266
aF-0.28997299999999998
asF13.872442007064819
(lp321
F-0.060306999999999999
aF-0.193908
asF15.49760103225708
(lp322
F0.037530000000000001
aF-0.54718599999999995
asF16.722032070159912
(lp323
F-0.29625899999999999
aF0.59726699999999999
asF17.284569025039673
(lp324
F-0.043645000000000003
aF0.35422999999999999
asF6.4096949100494385
(lp325
F-0.022778
aF-0.87375499999999995
asF23.11012601852417
(lp326
F-0.31398100000000001
aF-0.84694800000000003
asF16.009507894515991
(lp327
F-0.156998
aF0.32319100000000001
asF11.609858989715576
(lp328
F-0.24224599999999999
aF-0.11144800000000001
asF5.3222849369049072
(lp329
F0.44530999999999998
aF-0.023349000000000002
asF1.509876012802124
(lp330
F-0.0099640000000000006
aF0.00049399999999999997
asF13.959755897521973
(lp331
F-0.16676299999999999
aF-0.444913
asF7.9470450878143311
(lp332
F0.38533800000000001
aF0.63083599999999995
asF3.4348831176757812
(lp333
F-0.0036080000000000001
aF0.0037599999999999999
asF5.4224090576171875
(lp334
F0.403833
aF-0.18734999999999999
asF4.1846320629119873
(lp335
F0.00014899999999999999
aF0.0042500000000000003
asF2.2096281051635742
(lp336
F-0.00025000000000000001
aF0.0030720000000000001
asF22.297044992446899
(lp337
F-0.16592699999999999
aF-0.48760700000000001
asF8.5470759868621826
(lp338
F0.16630900000000001
aF0.660466
asF8.472430944442749
(lp339
F0.15847
aF0.744865
asF0.52215790748596191
(lp340
F0.00079799999999999999
aF0.0046030000000000003
asF12.972492933273315
(lp341
F0.166684
aF0.63814099999999996
asF17.047564029693604
(lp342
F-0.38633600000000001
aF0.75421400000000005
asF14.497030973434448
(lp343
F-0.054316999999999997
aF-0.59567099999999995
asF1.359623908996582
(lp344
F-0.000484
aF0.002777
asF17.334579944610596
(lp345
F-0.049731999999999998
aF0.332312
asF14.684654951095581
(lp346
F-0.32813500000000001
aF-0.70512200000000003
asF20.747103929519653
(lp347
F-0.227934
aF0.460395
asF19.797427892684937
(lp348
F-0.12709699999999999
aF-0.23944099999999999
asF14.597085952758789
(lp349
F-0.28829700000000003
aF-0.71063900000000002
asF5.9974110126495361
(lp350
F0.46959200000000001
aF-0.46986499999999998
asF12.522471904754639
(lp351
F-0.31193100000000001
aF0.43310500000000002
asF2.8849880695343018
(lp352
F0.001688
aF0.010524
asF15.584908962249756
(lp353
F0.026596999999999999
aF-0.164913
asF16.859962940216064
(lp354
F0.002127
aF0.74926700000000002
asF15.734602928161621
(lp355
F-0.087499999999999994
aF0.020667000000000001
asF21.984967947006226
(lp356
F-0.19803599999999999
aF-0.00083299999999999997
asF8.0973279476165771
(lp357
F0.47703299999999998
aF0.66973000000000005
asF19.297351121902466
(lp358
F-0.152665
aF-0.67889100000000002
asF11.37208890914917
(lp359
F-0.029405000000000001
aF-0.323077
asF11.909581899642944
(lp360
F-0.32006299999999999
aF0.26216800000000001
asF12.097223043441772
(lp361
F-0.091454999999999995
aF0.81076400000000004
asF16.147052049636841
(lp362
F-0.244336
aF0.44629999999999997
asF10.247380018234253
(lp363
F-0.16591400000000001
aF-0.15293899999999999
asF7.4226961135864258
(lp364
F-0.23535600000000001
aF0.052741999999999997
asF22.959583044052124
(lp365
F0.011780000000000001
aF-0.61310100000000001
asF20.409887075424194
(lp366
F0.084267999999999996
aF0.52816799999999997
asF20.897087097167969
(lp367
F-0.232769
aF0.42414099999999999
asF7.2723829746246338
(lp368
F-0.35496899999999998
aF-0.19991100000000001
asF9.0220739841461182
(lp369
F-0.052663000000000001
aF0.30221300000000001
asF4.3346879482269287
(lp370
F-0.003339
aF0.0068069999999999997
asF7.7598390579223633
(lp371
F0.35280499999999998
aF0.43833100000000003
asF15.547080039978027
(lp372
F-0.025248
aF-0.30126500000000001
asF0.60997390747070312
(lp373
F-0.00085499999999999997
aF0.0045050000000000003
asF19.897706985473633
(lp374
F-0.053017000000000002
aF-0.085757
asF13.122114896774292
(lp375
F0.069332000000000005
aF0.509961
asF10.573183059692383
(lp376
F0.014396000000000001
aF-0.58865999999999996
asF16.434559106826782
(lp377
F0.237959
aF0.76627699999999999
asF3.3846149444580078
(lp378
F-0.0020820000000000001
aF0.0036050000000000001
asF7.9098379611968994
(lp379
F0.163662
aF0.62019800000000003
asF16.622395038604736
(lp380
F-0.19244
aF0.36777500000000002
asF18.109535932540894
(lp381
F0.138881
aF-0.43954599999999999
asF6.6974060535430908
(lp382
F-0.35911300000000002
aF-0.850109
asF17.947402954101562
(lp383
F0.116879
aF-0.10229000000000001
asF20.647140979766846
(lp384
F-0.424929
aF0.46240799999999999
asF21.609638929367065
(lp385
F-0.13012699999999999
aF0.56325400000000003
asF13.697030067443848
(lp386
F-0.097512000000000001
aF-0.049167000000000002
asF7.5724079608917236
(lp387
F-0.091226000000000002
aF0.36837999999999999
asF11.798043966293335
(lp388
F0.085431000000000007
aF0.165548
asF10.722686052322388
(lp389
F-0.45126899999999998
aF-0.375832
asF14.547070980072021
(lp390
F-0.18698300000000001
aF-0.567639
asF21.685020923614502
(lp391
F0.44553900000000002
aF0.42329800000000001
asF9.2596170902252197
(lp392
F0.035041999999999997
aF-0.0025409999999999999
asF13.272394895553589
(lp393
F0.063431000000000001
aF0.39990500000000001
asF21.459715127944946
(lp394
F0.33332499999999998
aF0.72758
asF3.8725030422210693
(lp395
F-0.0018990000000000001
aF0.0051110000000000001
asF21.022252082824707
(lp396
F-0.069098999999999994
aF0.59939500000000001
asF8.3596720695495605
(lp397
F0.150755
aF0.75114099999999995
asF8.2721340656280518
(lp398
F0.389295
aF0.90450799999999998
asF21.084635019302368
(lp399
F-0.105211
aF0.62705900000000003
asF16.872091054916382
(lp400
F-0.0018209999999999999
aF0.79175399999999996
asF5.8096458911895752
(lp401
F0.047445000000000001
aF-0.62093100000000001
asF0.84720396995544434
(lp402
F0.0020939999999999999
aF0.003823
asF15.110013008117676
(lp403
F-0.039292000000000001
aF-0.69842400000000004
asF16.109579086303711
(lp404
F-0.012397
aF0.395565
asF18.672493934631348
(lp405
F0.18554300000000001
aF-0.35357899999999998
asF3.9474561214447021
(lp406
F0.0021849999999999999
aF0.0040130000000000001
asF0.10973811149597168
(lp407
F0.003699
aF0.0029090000000000001
asF10.909868001937866
(lp408
F-0.47498299999999999
aF-0.71661799999999998
asF9.8725299835205078
(lp409
F-0.077084
aF-0.73992800000000003
asF19.422598123550415
(lp410
F-0.090175000000000005
aF-0.52455700000000005
asF15.172137022018433
(lp411
F0.104212
aF-0.669215
asF22.88509202003479
(lp412
F0.213779
aF-0.57764300000000002
asF20.034568071365356
(lp413
F0.044458999999999999
aF-0.005679
asF13.209568023681641
(lp414
F0.048687000000000001
aF0.47070499999999998
asF2.8724379539489746
(lp415
F0.0016559999999999999
aF0.010880000000000001
asF22.397578001022339
(lp416
F0.23261699999999999
aF-0.76745200000000002
asF12.13495397567749
(lp417
F0.0076559999999999996
aF0.63444500000000004
asF3.2972960472106934
(lp418
F0.00116
aF0.0033730000000000001
asF14.22272801399231
(lp419
F0.61154299999999995
aF-0.67190799999999995
asF16.684634923934937
(lp420
F-0.30679000000000001
aF0.55801999999999996
asF9.8850469589233398
(lp421
F-0.114219
aF-0.67451799999999995
asF4.5598640441894531
(lp422
F-0.014393
aF0.0048719999999999996
asF13.084846973419189
(lp423
F0.26641700000000001
aF0.55641799999999997
asF20.784564018249512
(lp424
F-0.25947300000000001
aF0.44265199999999999
asF3.6722359657287598
(lp425
F0.0033419999999999999
aF0.0037290000000000001
asF20.522330045700073
(lp426
F0.059200999999999997
aF0.56257100000000004
asF13.447046995162964
(lp427
F0.019011
aF0.138488
asF7.3222260475158691
(lp428
F-0.28381600000000001
aF-0.11262
asF15.347363948822021
(lp429
F-0.069444000000000006
aF-0.61693399999999998
asF12.709620952606201
(lp430
F-0.080006999999999995
aF0.46819
asF14.984587907791138
(lp431
F0.15337700000000001
aF-0.71288200000000002
asF2.5846669673919678
(lp432
F0.0075490000000000002
aF0.013705
asF0.48535490036010742
(lp433
F0.00363
aF0.0039649999999999998
asF2.3096890449523926
(lp434
F0.003539
aF0.0048390000000000004
asF12.559587955474854
(lp435
F-0.145394
aF0.50921099999999997
asF23.147069931030273
(lp436
F-0.026779000000000001
aF-0.66918500000000003
asF15.05964994430542
(lp437
F0.038061999999999999
aF-0.68011999999999995
asF8.7845809459686279
(lp438
F0.027916
aF0.51328300000000004
asF16.384788036346436
(lp439
F0.15069299999999999
aF0.67451099999999997
asF23.384637117385864
(lp440
F-0.011370999999999999
aF-0.69752599999999998
asF23.072494029998779
(lp441
F-0.094167000000000001
aF-0.78715400000000002
asF18.235130071640015
(lp442
F-0.35057100000000002
aF-0.73054799999999998
asF13.497083902359009
(lp443
F-0.021392999999999999
aF0.0099349999999999994
asF6.5475521087646484
(lp444
F-0.47269600000000001
aF-1.0624549999999999
asF11.522500991821289
(lp445
F-0.28430499999999997
aF-0.27904099999999998
asF21.59731912612915
(lp446
F0.10151
aF0.58163100000000001
asF21.873291015625
(lp447
F0.0039179999999999996
aF0.004764
asF2.9223289489746094
(lp448
F0.0012999999999999999
aF0.0097099999999999999
asF16.059868097305298
(lp449
F-0.012517
aF0.544431
asF8.2850611209869385
(lp450
F0.31019400000000003
aF0.83397200000000005
asF19.472243070602417
(lp451
F0.013913
aF-0.583839
asF2.2596149444580078
(lp452
F0.001637
aF0.0031830000000000001
asF22.584887027740479
(lp453
F0.34257300000000002
aF-0.407636
asF21.259649038314819
(lp454
F0.029968999999999999
aF0.58051399999999997
asF21.922049045562744
(lp455
F-0.115879
aF0.18886
asF3.1475241184234619
(lp456
F-0.001485
aF0.0046160000000000003
asF0.70960307121276855
(lp457
F-0.001684
aF0.0056559999999999996
asF21.447396993637085
(lp458
F0.23926600000000001
aF0.76282399999999995
asF15.822088003158569
(lp459
F-0.040586999999999998
aF0.26077600000000001
asF11.047070026397705
(lp460
F-0.411269
aF-0.85794199999999998
asF9.4973800182342529
(lp461
F0.016428000000000002
aF-0.34288099999999999
asF0.23477005958557129
(lp462
F0.000977
aF0.0043689999999999996
asF6.2600939273834229
(lp463
F0.30602299999999999
aF-0.71633999999999998
asF4.6597831249237061
(lp464
F0.14835300000000001
aF0.064042000000000002
asF20.322076082229614
(lp465
F0.13234000000000001
aF0.33852700000000002
asF20.097054958343506
(lp466
F0.049879
aF0.14896300000000001
asF14.922109127044678
(lp467
F0.061509000000000001
aF-0.73843999999999999
asF19.372064113616943
(lp468
F-0.32341300000000001
aF-0.522814
asF17.585026025772095
(lp469
F0.29112199999999999
aF0.20688899999999999
asF6.5981860160827637
(lp470
F-0.58543400000000001
aF-1.0300320000000001
asF5.2345380783081055
(lp471
F0.197237
aF-0.011520000000000001
asF10.197550058364868
(lp472
F-0.30082199999999998
aF-0.33588299999999999
asF18.572168111801147
(lp473
F-0.059072
aF-0.51435200000000003
asF3.7598841190338135
(lp474
F0.00036600000000000001
aF0.0057359999999999998
asF4.0973799228668213
(lp475
F0.00051000000000000004
aF0.003656
asF10.872754096984863
(lp476
F-0.23780599999999999
aF-0.57103400000000004
asF7.3845860958099365
(lp477
F-0.30040899999999998
aF-0.055079000000000003
asF5.084597110748291
(lp478
F0.38754899999999998
aF0.024368000000000001
asF14.059967041015625
(lp479
F-0.00054500000000000002
aF-0.42530600000000002
asF0.65968799591064453
(lp480
F-0.0015900000000000001
aF0.0050460000000000001
asF13.634520053863525
(lp481
F0.083681000000000005
aF-0.080990999999999994
asF4.1471109390258789
(lp482
F0.001696
aF0.003637
asF20.972376108169556
(lp483
F-0.043360000000000003
aF0.59130799999999994
asF3.6849601268768311
(lp484
F0.0028769999999999998
aF0.0046280000000000002
asF9.3971209526062012
(lp485
F0.103947
aF-0.175983
asF22.822214126586914
(lp486
F-0.13219500000000001
aF-0.63710599999999995
asF0.18485212326049805
(lp487
F0.0031540000000000001
aF0.003408
asF1.2855880260467529
(lp488
F0.00078799999999999996
aF0.0044479999999999997
asF16.497461080551147
(lp489
F0.088267999999999999
aF0.65230600000000005
asF4.8975100517272949
(lp490
F0.45134299999999999
aF0.022526000000000001
asF20.934600114822388
(lp491
F-0.13500100000000001
aF0.47511900000000001
asF22.022324085235596
(lp492
F-0.101024
aF-0.188217
asF13.772469997406006
(lp493
F-0.095180000000000001
aF-0.090750999999999998
asF21.49741005897522
(lp494
F0.19783300000000001
aF0.59879400000000005
asF17.397639036178589
(lp495
F-0.0084209999999999997
aF0.26802199999999998
asF11.847301006317139
(lp496
F0.118451
aF0.31392999999999999
asF16.247034072875977
(lp497
F0.46714600000000001
aF0.53300499999999995
asF12.834577083587646
(lp498
F-0.059408999999999997
aF0.61826300000000001
asF16.997150897979736
(lp499
F-0.078258999999999995
aF0.79923100000000002
asF15.209594011306763
(lp500
F0.143234
aF-0.72229900000000002
asF2.5471000671386719
(lp501
F0.0069940000000000002
aF0.012898
asF21.072144031524658
(lp502
F-0.067045999999999994
aF0.60255999999999998
asF5.6971209049224854
(lp503
F-0.044977999999999997
aF-0.55148900000000001
asF3.0096399784088135
(lp504
F-0.00018000000000000001
aF0.0070169999999999998
asF22.509768009185791
(lp505
F0.22484999999999999
aF-0.46247500000000002
asF5.6478509902954102
(lp506
F0.107178
aF-0.54554800000000003
asF19.659632921218872
(lp507
F-0.27664
aF-0.43041400000000002
asF12.510103940963745
(lp508
F-0.37927300000000003
aF0.38999400000000001
asF5.0470519065856934
(lp509
F0.40427299999999999
aF0.030682000000000001
asF9.1596109867095947
(lp510
F0.035969000000000001
aF0.085197999999999996
asF6.9848580360412598
(lp511
F-0.095449999999999993
aF-0.66561099999999995
asF19.947077989578247
(lp512
F-0.059205000000000001
aF-0.044651999999999997
asF16.30990195274353
(lp513
F0.152809
aF0.66907000000000005
asF5.559596061706543
(lp514
F0.18138599999999999
aF-0.32936799999999999
asF18.184749126434326
(lp515
F-0.401532
aF-0.77480300000000002
asF18.685118913650513
(lp516
F0.25426799999999999
aF-0.31733099999999997
asF10.759665966033936
(lp517
F-0.42010599999999998
aF-0.38858399999999998
asF11.234617948532104
(lp518
F-0.26256800000000002
aF-0.42659200000000003
asF1.8980169296264648
(lp519
F-0.00036499999999999998
aF0.0028700000000000002
asF0.94748306274414062
(lp520
F0.001905
aF0.0040410000000000003
asF14.609596967697144
(lp521
F-0.32289499999999999
aF-0.703982
asF11.947351932525635
(lp522
F-0.563334
aF0.241065
asF14.160013914108276
(lp523
F0.18939600000000001
aF-0.48762
asF12.647120952606201
(lp524
F-0.27094000000000001
aF0.43712000000000001
asF0.98502707481384277
(lp525
F0.0019989999999999999
aF0.0044710000000000001
asF1.9720690250396729
(lp526
F0.00094399999999999996
aF0.0033279999999999998
asF10.94715690612793
(lp527
F-0.64328799999999997
aF-0.90095000000000003
asF11.759594917297363
(lp528
F-0.035000000000000003
aF0.185247
asF0.097218990325927734
(lp529
F0.0030439999999999998
aF0.0029090000000000001
asF18.422039985656738
(lp530
F-0.83850499999999994
aF-0.771119
asF0.47215700149536133
(lp531
F0.003542
aF0.0039769999999999996
asF22.697950124740601
(lp532
F-0.15120900000000001
aF-0.57160999999999995
asF8.1347548961639404
(lp533
F0.34813499999999997
aF0.667771
asF3.0724499225616455
(lp534
F-0.0044549999999999998
aF0.0066699999999999997
asF1.8346030712127686
(lp535
F-0.0030890000000000002
aF0.0030509999999999999
asF11.422270059585571
(lp536
F-0.090972999999999998
aF-0.57514900000000002
asF2.0724809169769287
(lp537
F0.0036649999999999999
aF0.00233
asF7.984699010848999
(lp538
F-0.123164
aF0.700318
asF2.1223320960998535
(lp539
F0.003741
aF0.003107
asF17.572415113449097
(lp540
F0.24337400000000001
aF0.22207399999999999
asF0.55979609489440918
(lp541
F0.00036299999999999999
aF0.005169
asF5.8852910995483398
(lp542
F0.28280899999999998
aF-0.49334699999999998
asF19.235043048858643
(lp543
F-0.054587999999999998
aF-0.70643500000000004
asF19.709652900695801
(lp544
F-0.18640499999999999
aF-0.40385599999999999
asF10.997092962265015
(lp545
F-0.56429799999999997
aF-1.009622
asF16.759581089019775
(lp546
F-0.28300700000000001
aF0.58099299999999998
asF3.3099250793457031
(lp547
F0.00071199999999999996
aF0.0035010000000000002
asF5.5726399421691895
(lp548
F0.10578600000000001
aF-0.36462099999999997
asF20.834567070007324
(lp549
F-0.20863200000000001
aF0.52547299999999997
asF19.097440004348755
(lp550
F0.24990100000000001
aF-0.212918
asF13.584913969039917
(lp551
F0.22312599999999999
aF-0.029864000000000002
asF18.997080087661743
(lp552
F-0.22178300000000001
aF-0.27159299999999997
asF13.822487115859985
(lp553
F-0.16071099999999999
aF-0.16516900000000001
asF17.772123098373413
(lp554
F0.215008
aF-0.082807000000000006
asF14.834849119186401
(lp555
F0.15615799999999999
aF-0.75751199999999996
asF4.7597329616546631
(lp556
F0.39454299999999998
aF0.112885
asF9.5849111080169678
(lp557
F-0.20860200000000001
aF-0.44967000000000001
asF0.79740691184997559
(lp558
F0.00018200000000000001
aF0.0046039999999999996
asF9.772442102432251
(lp559
F-0.255741
aF-0.50874299999999995
asF7.0474081039428711
(lp560
F-0.19461200000000001
aF-0.39751999999999998
asF22.209682941436768
(lp561
F-0.120008
aF-0.167993
asF17.959897994995117
(lp562
F0.085100999999999996
aF-0.10903599999999999
asF7.1348659992218018
(lp563
F-0.073948
aF-0.23799600000000001
asF4.5223081111907959
(lp564
F-0.0031849999999999999
aF0.0062440000000000004
asF18.72210693359375
(lp565
F-0.115449
aF-0.32997199999999999
asF11.334566116333008
(lp566
F-0.062001000000000001
aF-0.33384000000000003
asF14.447390079498291
(lp567
F-0.09461
aF-0.63961500000000004
asF15.697421073913574
(lp568
F-0.0075570000000000003
aF0.076804999999999998
asF10.009952068328857
(lp569
F-0.220139
aF-0.57794599999999996
asF18.372129917144775
(lp570
F-0.76219800000000004
aF-0.75711300000000004
asF20.272063970565796
(lp571
F0.036707999999999998
aF0.24846799999999999
asF2.634850025177002
(lp572
F0.0082579999999999997
aF0.014062
asF2.4970800876617432
(lp573
F0.0046249999999999998
aF0.012654
asF8.0347380638122559
(lp574
F0.104118
aF0.60913200000000001
asF12.322138071060181
(lp575
F-0.52280599999999999
aF0.50278999999999996
asF4.0470631122589111
(lp576
F0.0032750000000000001
aF0.003137
asF16.673042058944702
(lp577
F-0.27650000000000002
aF0.51569799999999999
asF4.4221251010894775
(lp578
F-0.0012930000000000001
aF0.0061739999999999998
asF7.2346560955047607
(lp579
F-0.41507500000000003
aF-0.28499200000000002
asF10.535094022750854
(lp580
F-0.15679899999999999
aF-0.616066
asF15.959578990936279
(lp581
F-0.107248
aF0.35774699999999998
asF3.4970510005950928
(lp582
F-0.0023280000000000002
aF0.0037030000000000001
asF12.334655046463013
(lp583
F-0.566743
aF0.52637699999999998
asF0.14710211753845215
(lp584
F0.0040920000000000002
aF0.003627
asF1.6471691131591797
(lp585
F-0.0076730000000000001
aF0.001534
asF6.8346490859985352
(lp586
F-0.27841199999999999
aF-0.85933000000000004
asF18.859587907791138
(lp587
F-0.021659000000000001
aF-0.25790200000000002
asF0.29739809036254883
(lp588
F0.00097099999999999997
aF0.0046340000000000001
asF4.7097110748291016
(lp589
F0.31865300000000002
aF0.114841
asF9.9226579666137695
(lp590
F-0.19125
aF-0.58754399999999996
asF22.059962034225464
(lp591
F-0.12470000000000001
aF-0.16649600000000001
asF15.247395992279053
(lp592
F0.164662
aF-0.77199899999999999
asF19.909862041473389
(lp593
F-0.0096369999999999997
aF-0.064685000000000006
asF15.359679937362671
(lp594
F-0.184558
aF-0.58231500000000003
asF17.522062063217163
(lp595
F0.053673999999999999
aF0.280331
asF0.6727290153503418
(lp596
F-0.001593
aF0.005012
asF13.310143947601318
(lp597
F0.068292000000000005
aF0.34093699999999999
asF9.2096199989318848
(lp598
F0.010099
aF0.082863000000000006
asF21.547096014022827
(lp599
F0.35706500000000002
aF0.59132700000000005
as.