(dp1
F13.830245971679688
(lp2
F-0.15556092132757179
aF-0.66061518210803893
asF6.6716690063476562
(lp3
F0.011968847235636022
aF-0.18905782037678484
asF0.93048095703125
(lp4
F0.0085267239324093441
aF0.0011162608612737181
asF17.944153070449829
(lp5
F0.20400219876281814
aF-0.64662658432502362
asF19.575078964233398
(lp6
F0.014021549528244859
aF-0.21069186344638227
asF22.765589952468872
(lp7
F0.032988602272977119
aF-0.883804934035335
asF12.532058954238892
(lp8
F-0.0070626409753983474
aF0.83449229470169961
asF18.567911863327026
(lp9
F0.087349745499347251
aF-0.68249868027075034
asF22.481138944625854
(lp10
F-0.075884108081017934
aF-0.84387261558133508
asF3.2346210479736328
(lp11
F0.0080803187746206935
aF0.0010403978321880992
asF17.431686878204346
(lp12
F0.3366617741914662
aF-0.29546540470553018
asF4.0038189888000488
(lp13
F0.092086080177745722
aF-0.081174943108426809
asF18.43118691444397
(lp14
F0.080915690090083467
aF-0.63172639866368441
asF17.396424055099487
(lp15
F0.3366617741914662
aF-0.29546540470553018
asF3.4960200786590576
(lp16
F0.0084095608521943203
aF0.0011079309359330225
asF21.673851013183594
(lp17
F0.016692064440427486
aF-0.19101327635883397
asF1.0321810245513916
(lp18
F-0.012173775002111611
aF-0.0015739888497411409
asF4.2321290969848633
(lp19
F0.29863474272024887
aF-0.017139664415504602
asF1.5957810878753662
(lp20
F-0.0078703028810965213
aF-0.0010181587799467917
asF12.232697010040283
(lp21
F0.16399198203973758
aF0.96318558117086317
asF15.729944944381714
(lp22
F-0.092479772911859104
aF0.42926895118623287
asF22.441801071166992
(lp23
F-0.075884108081017934
aF-0.84387261558133508
asF0.2333528995513916
(lp24
F0.010067133013049536
aF0.0013130423926881337
asF3.9624869823455811
(lp25
F0.072978005751210717
aF-0.091277659843424078
asF17.264833927154541
(lp26
F0.30554681810086004
aF-0.095204068744874068
asF22.402071952819824
(lp27
F0.0030681998810670394
aF-0.93412993531264343
asF1.2049429416656494
(lp28
F0.0031733822687304292
aF0.00041708614603592142
asF16.045747041702271
(lp29
F-0.14217926072908038
aF0.78321877074906454
asF14.79593300819397
(lp30
F-0.028235204674728745
aF-0.68441988707606793
asF20.529397010803223
(lp31
F-0.18293177088442572
aF0.90068518091798822
asF18.678873062133789
(lp32
F0.068032070211195297
aF-0.79917614081103938
asF2.1392569541931152
(lp33
F0.0074026980970808599
aF0.00097137870643246868
asF14.141342878341675
(lp34
F-0.16367986770317455
aF-0.86934474121765537
asF19.365494012832642
(lp35
F0.0073415510578266653
aF-0.37142346093899914
asF6.3011279106140137
(lp36
F0.0029920712396314473
aF-0.870716660672052
asF9.9626228809356689
(lp37
F0.032912084497731135
aF-0.62986244600745445
asF20.732208013534546
(lp38
F-0.07401647771272607
aF0.90242556170467547
asF2.9604220390319824
(lp39
F0.0035646613001576099
aF0.00049034549860079509
asF18.394108057022095
(lp40
F0.12975481636635883
aF-0.60172072933656062
asF20.998952865600586
(lp41
F-0.073597990217701456
aF0.74363448307522695
asF0.53202986717224121
(lp42
F0.0061722047654520348
aF0.00079174060971790548
asF3.2989740371704102
(lp43
F0.0017389171360753667
aF0.00022037014294659283
asF5.1670520305633545
(lp44
F0.21969225741017459
aF-0.58885262865158849
asF6.7668309211730957
(lp45
F-0.070732206045529877
aF-0.14884266722146366
asF12.97681188583374
(lp46
F0.058085930467434571
aF0.58897700240830742
asF7.0047829151153564
(lp47
F0.00013219913074313805
aF0.2821899237544585
asF2.900285005569458
(lp48
F0.0026608929693704786
aF0.00030890815658010553
asF20.835377931594849
(lp49
F-0.067708963066598446
aF0.80096652152090142
asF6.5336620807647705
(lp50
F-0.11252174251148429
aF-0.50062478990890091
asF4.6013200283050537
(lp51
F0.46462273491809486
aF-0.057546367415452271
asF9.729511022567749
(lp52
F-0.1035183741370069
aF-0.53705669067218653
asF21.849054098129272
(lp53
F0.089040117946504183
aF-0.55076832207644966
asF5.7271299362182617
(lp54
F0.17151195629940413
aF-1.0965282639500147
asF1.396575927734375
(lp55
F-0.014127717526776391
aF-0.001828867756134563
asF17.711885929107666
(lp56
F0.29489457634359961
aF-0.62574946605415271
asF15.667196989059448
(lp57
F-0.096677855121047596
aF0.33636164598734619
asF1.971531867980957
(lp58
F0.012649644685080338
aF0.0016063806342285056
asF6.5094339847564697
(lp59
F-0.1179454282636256
aF-0.56633973040125496
asF23.277878999710083
(lp60
F0.12160506290022434
aF-0.41773264795929232
asF3.4626870155334473
(lp61
F-0.0088252229952892839
aF-0.001151585862430179
asF17.16919207572937
(lp62
F0.33844351679373302
aF-0.012526914268455341
asF4.7602438926696777
(lp63
F0.61303957759214056
aF-0.095207004653772187
asF4.9270229339599609
(lp64
F0.61303957759214056
aF-0.095207004653772187
asF21.29564905166626
(lp65
F-0.055715346243639108
aF0.41243582321482652
asF9.8524298667907715
(lp66
F-0.10051927027283836
aF-0.53169959427041291
asF1.7641198635101318
(lp67
F0.0050974900160104374
aF0.00066436438809041654
asF15.1335768699646
(lp68
F-0.0026304901674224258
aF-0.33184760953122816
asF13.944114923477173
(lp69
F-0.080773573031238832
aF-0.77681740933530707
asF4.9634928703308105
(lp70
F-0.20423741058928746
aF-0.71420822006697637
asF13.097795009613037
(lp71
F-0.045396994060486778
aF0.37631495729606129
asF10.664460897445679
(lp72
F0.11540261519833331
aF-0.72139865978227447
asF15.006777048110962
(lp73
F-0.014912975145695593
aF-0.47206692754117713
asF18.812960863113403
(lp74
F0.070027565419877716
aF-0.79132489805143169
asF10.731688022613525
(lp75
F0.028120184148167998
aF-0.6099884315139521
asF14.598759889602661
(lp76
F-0.091434723782094898
aF-0.87500230252231326
asF12.666002035140991
(lp77
F0.082250088558401019
aF0.83226657762656564
asF21.26453709602356
(lp78
F-0.14187637361341718
aF0.45967052084516158
asF12.334464073181152
(lp79
F0.1224803305885139
aF0.9843685598994546
asF9.2944560050964355
(lp80
F0.074078805739297163
aF-0.75635822071550618
asF22.894607067108154
(lp81
F-0.04031876498107307
aF-0.78577649324079801
asF0.56518888473510742
(lp82
F-0.00010541662016717163
aF-1.0342319999391233e-05
asF15.196341037750244
(lp83
F-0.070418376271304844
aF-0.20183493180306697
asF8.9358909130096436
(lp84
F0.26819827815788344
aF-0.85612256766813188
asF22.263705015182495
(lp85
F-0.047094300636616092
aF-0.78845883673466055
asF19.333188056945801
(lp86
F0.0073415510578266653
aF-0.37142346093899914
asF23.136813879013062
(lp87
F0.16799046105997933
aF-0.56136433104622663
asF16.862919092178345
(lp88
F0.098165893968922391
aF0.57502678529362872
asF13.031687021255493
(lp89
F-0.023913415269378867
aF0.44174604520042315
asF10.798059940338135
(lp90
F0.03310519462636103
aF-0.54964631900608785
asF8.2295339107513428
(lp91
F-0.15942084553035801
aF0.78279543315759326
asF4.2834758758544922
(lp92
F0.29863474272024887
aF-0.017139664415504602
asF10.304079055786133
(lp93
F0.036390373034398071
aF-0.84637475033786125
asF6.7019438743591309
(lp94
F0.011968847235636022
aF-0.18905782037678484
asF14.876957893371582
(lp95
F-0.012207427829187795
aF-0.59791118115152275
asF5.499176025390625
(lp96
F0.26678052924746265
aF-1.0326632208237716
asF3.6174778938293457
(lp97
F-0.0075458813370526054
aF-0.0009407335119407177
asF16.130069971084595
(lp98
F-0.16606448205056623
aF0.76751440170822882
asF6.2134430408477783
(lp99
F-0.044854928183260985
aF-0.867391549221455
asF21.160971879959106
(lp100
F-0.12375460876036293
aF0.60636040192991325
asF1.1682209968566895
(lp101
F0.0031733822687304292
aF0.00041708614603592142
asF16.401558876037598
(lp102
F-0.078241309453963542
aF0.89933715586927021
asF17.535409927368164
(lp103
F0.23453049444492766
aF-0.30560744241597992
asF1.6292960643768311
(lp104
F0.0035556678863991834
aF0.00046308493997976059
asF9.3301448822021484
(lp105
F-0.026068139857463979
aF-0.63575863673068622
asF14.531419992446899
(lp106
F-0.077477494197485744
aF-0.94734486910784521
asF17.297180891036987
(lp107
F0.30554681810086004
aF-0.095204068744874068
asF2.638340950012207
(lp108
F0.008087301412631127
aF0.0010113740131823255
asF10.82939887046814
(lp109
F-0.021066900970044974
aF-0.48983812419320422
asF11.666467905044556
(lp110
F-0.063708920652254211
aF0.55503817546473266
asF2.0630519390106201
(lp111
F-0.02027185238005982
aF-0.0026261927398608504
asF9.6183140277862549
(lp112
F-0.11942771778526491
aF-0.44187636129398222
asF21.331218957901001
(lp113
F-0.0456323048266494
aF0.36558842172079875
asF12.804934024810791
(lp114
F0.050508003598441834
aF0.7265157571874219
asF15.167012929916382
(lp115
F-0.0026304901674224258
aF-0.33184760953122816
asF7.501349925994873
(lp116
F-0.31029563984095321
aF0.75454400146324008
asF5.2689590454101562
(lp117
F0.086712769908611459
aF-0.7558746531444176
asF12.896332025527954
(lp118
F0.076174363750804455
aF0.72395392345697818
asF16.167195081710815
(lp119
F-0.13259995726809673
aF0.84237781979686011
asF2.6971380710601807
(lp120
F0.015202083011376405
aF0.0019727537994543632
asF10.177082061767578
(lp121
F0.082179993314936986
aF-0.79588061088787265
asF16.302075862884521
(lp122
F-0.14213237022861391
aF0.88339349491814201
asF6.3421430587768555
(lp123
F0.0029920712396314473
aF-0.870716660672052
asF9.3648250102996826
(lp124
F-0.080932470714816809
aF-0.55134304298972814
asF1.4602460861206055
(lp125
F0.0024181108713034576
aF0.00032279083098602336
asF4.7335779666900635
(lp126
F0.61303957759214056
aF-0.095207004653772187
asF22.79570198059082
(lp127
F0.032988602272977119
aF-0.883804934035335
asF16.432064056396484
(lp128
F-0.077773308078637568
aF0.86194209097436592
asF13.763979911804199
(lp129
F-0.060438984781944698
aF-0.666229497639653
asF6.6426088809967041
(lp130
F0.052286353054676951
aF-0.31649369547698897
asF7.4290919303894043
(lp131
F-0.14147104535663418
aF0.69347387356785695
asF2.496082067489624
(lp132
F-0.0096796481684911315
aF-0.0012630743734633938
asF0.47486400604248047
(lp133
F0.013291922123254734
aF0.0017418662264807798
asF15.951585054397583
(lp134
F-0.13827481927618146
aF0.70465816536754367
asF4.8268899917602539
(lp135
F0.61303957759214056
aF-0.095207004653772187
asF7.7653820514678955
(lp136
F-0.073410138998535879
aF0.8622148519078574
asF11.906420946121216
(lp137
F-0.0021704442513445672
aF0.75647173517462263
asF23.43862509727478
(lp138
F-0.030634992693753953
aF0.054102311772363909
asF13.963478088378906
(lp139
F-0.16860176008124778
aF-0.70742355959890979
asF11.035546064376831
(lp140
F0.030333787197868306
aF-0.17790199200420859
asF18.100043058395386
(lp141
F0.15830246401393253
aF-0.56200172926917225
asF10.007121086120605
(lp142
F0.032912084497731135
aF-0.62986244600745445
asF14.427104949951172
(lp143
F-0.073553612925182518
aF-0.96329661937653277
asF19.15651798248291
(lp144
F0.037041951279708031
aF-0.46963845529611248
asF15.035077095031738
(lp145
F-0.014912975145695593
aF-0.47206692754117713
asF14.93300199508667
(lp146
F-0.012060265997603566
aF-0.5327775189262739
asF10.13245701789856
(lp147
F0.082179993314936986
aF-0.79588061088787265
asF11.463943004608154
(lp148
F-0.04670592559406582
aF0.44086480338042133
asF0.27018308639526367
(lp149
F0.010067133013049536
aF0.0013130423926881337
asF6.6149370670318604
(lp150
F0.063494533468259895
aF-0.33932805796861298
asF18.833380937576294
(lp151
F0.048350046805852809
aF-0.71827257451298421
asF23.377465009689331
(lp152
F0.040743112836518394
aF-0.21087194210446963
asF11.069586038589478
(lp153
F-0.0070516110717046866
aF-0.057102176065505911
asF11.131335973739624
(lp154
F0.059913956397831217
aF0.013737082707068984
asF21.931946992874146
(lp155
F-0.052637029276457178
aF-0.55894469375944889
asF4.7084650993347168
(lp156
F0.50276683871144934
aF-0.061866814162313058
asF1.7971639633178711
(lp157
F0.0010974631979327144
aF0.00013190112706643541
asF6.038769006729126
(lp158
F0.076238175660104407
aF-1.0267913484836848
asF12.594155073165894
(lp159
F-0.0070626409753983474
aF0.83449229470169961
asF7.2297179698944092
(lp160
F-0.17611173546511466
aF0.57695422184595557
asF1.4301140308380127
(lp161
F0.0024181108713034576
aF0.00032279083098602336
asF21.864784002304077
(lp162
F0.094175218527494872
aF-0.55568551130991717
asF19.033149003982544
(lp163
F0.016730673816909028
aF-0.53622529941286567
asF8.7269248962402344
(lp164
F0.057228317292543317
aF0.44424638464337274
asF18.501275062561035
(lp165
F0.17026468285710605
aF-0.74259509666561296
asF8.5319340229034424
(lp166
F0.089295031761101915
aF0.47735700937853187
asF2.9302859306335449
(lp167
F0.0035646613001576099
aF0.00049034549860079509
asF6.7299060821533203
(lp168
F-0.070732206045529877
aF-0.14884266722146366
asF6.9697980880737305
(lp169
F-0.035283790890065454
aF0.25279153600394211
asF17.630905866622925
(lp170
F0.43367186102405819
aF-0.61411605540533809
asF20.929776906967163
(lp171
F-0.15082943784946881
aF0.80203580690401155
asF20.59583306312561
(lp172
F-0.010622141491362813
aF0.8872826903412252
asF5.5772159099578857
(lp173
F0.18228356089409353
aF-0.96889890509619903
asF18.295692920684814
(lp174
F0.076277339640831554
aF-0.62146283700546778
asF23.100671052932739
(lp175
F0.059986955392674804
aF-0.58762952933439416
asF4.163179874420166
(lp176
F0.1250333348171252
aF0.10152092431461943
asF13.598347902297974
(lp177
F-0.18045246699988798
aF-0.38904811565603559
asF22.934536933898926
(lp178
F0.036595865241499208
aF-0.7681041949626104
asF11.831196069717407
(lp179
F0.015211172556546439
aF0.66887239149589983
asF18.529700040817261
(lp180
F0.087349745499347251
aF-0.68249868027075034
asF9.0734648704528809
(lp181
F0.15277187651307883
aF-0.69386707467822539
asF17.702339887619019
(lp182
F0.34546878768120431
aF-0.64623029262405907
asF4.6748559474945068
(lp183
F0.50276683871144934
aF-0.061866814162313058
asF1.8945479393005371
(lp184
F-0.0055610144418635496
aF-0.00070825362546544696
asF9.2644200325012207
(lp185
F0.074078805739297163
aF-0.75635822071550618
asF6.0630860328674316
(lp186
F0.058942666219785847
aF-1.0524151400323116
asF20.132288932800293
(lp187
F-0.15006897744188025
aF0.57667941046897453
asF6.9384329319000244
(lp188
F-0.035283790890065454
aF0.25279153600394211
asF8.1971900463104248
(lp189
F-0.16761952928046253
aF0.86307695507430704
asF21.806365013122559
(lp190
F-0.056580208089273595
aF-0.36954021897215356
asF9.5411839485168457
(lp191
F-0.07378124811777223
aF-0.4832529707913798
asF20.765016078948975
(lp192
F-0.07401647771272607
aF0.90242556170467547
asF3.8057138919830322
(lp193
F0.025569251506409665
aF0.021426725802589839
asF14.763413906097412
(lp194
F-0.087891374472289313
aF-0.73388519414779996
asF1.4978659152984619
(lp195
F-0.016820414638217519
aF-0.0021671710035136645
asF17.329964876174927
(lp196
F0.22456503220671314
aF-0.11086528639551238
asF3.3723249435424805
(lp197
F4.2813919993723616e-05
aF-1.2834069638675583e-05
asF12.196186065673828
(lp198
F0.057938239109131817
aF0.84931481726752123
asF19.900048971176147
(lp199
F-0.0051972188074480702
aF0.33682199515419148
asF0.7749629020690918
(lp200
F0.019856815720982957
aF0.0026070720366645618
asF13.868138074874878
(lp201
F-0.094692681961213901
aF-0.77251419585237047
asF17.961467981338501
(lp202
F0.20400219876281814
aF-0.64662658432502362
asF3.5741550922393799
(lp203
F-0.0075458813370526054
aF-0.0009407335119407177
asF2.1645870208740234
(lp204
F0.0023352829219112359
aF0.00027928324500269594
asF17.207956075668335
(lp205
F0.31499743516122447
aF-0.019761149569769799
asF19.801474094390869
(lp206
F-0.048751800467177232
aF0.13334316523290723
asF13.662761926651001
(lp207
F-0.18045246699988798
aF-0.38904811565603559
asF3.939094066619873
(lp208
F0.098284099961892982
aF-0.097370905197370641
asF9.934391975402832
(lp209
F0.016351008930869951
aF-0.62857537997779189
asF15.595714092254639
(lp210
F-0.050431450364106484
aF0.24832335221761892
asF21.399854898452759
(lp211
F-0.0456323048266494
aF0.36558842172079875
asF3.3295059204101562
(lp212
F4.2813919993723616e-05
aF-1.2834069638675583e-05
asF22.830003976821899
(lp213
F0.031335108946238747
aF-0.88685913390950655
asF16.530039072036743
(lp214
F0.0020276080162016014
aF0.81435211014433861
asF7.2793440818786621
(lp215
F-0.17611173546511466
aF0.57695422184595557
asF0.62938904762268066
(lp216
F0.0010963235713747344
aF0.00015107122657729145
asF18.896463871002197
(lp217
F0.090012916148525288
aF-0.72230580747374029
asF11.339925050735474
(lp218
F0.074023630851912992
aF0.26627578379497185
asF13.170051097869873
(lp219
F-0.10139498917410966
aF0.29515322660468918
asF14.699471950531006
(lp220
F-0.059874558124484598
aF-0.78491625219543526
asF17.051584959030151
(lp221
F0.14337991881798798
aF0.30353374232475844
asF2.5374400615692139
(lp222
F-0.0096796481684911315
aF-0.0012630743734633938
asF22.128777027130127
(lp223
F-0.04856017823227525
aF-0.6444536564397445
asF5.7178709506988525
(lp224
F0.17151195629940413
aF-1.0965282639500147
asF8.9965949058532715
(lp225
F0.15277187651307883
aF-0.69386707467822539
asF6.4689280986785889
(lp226
F-0.1179454282636256
aF-0.56633973040125496
asF11.163275003433228
(lp227
F0.059913956397831217
aF0.013737082707068984
asF13.606093883514404
(lp228
F-0.18045246699988798
aF-0.38904811565603559
asF10.438966035842896
(lp229
F-0.00074646880046047581
aF-0.77016868874936428
asF18.23115086555481
(lp230
F0.12037778537929628
aF-0.6061929935244873
asF9.4323160648345947
(lp231
F-0.088892400229175578
aF-0.50288880182968176
asF4.510645866394043
(lp232
F0.38578778208597259
aF-0.018544009308755702
asF13.999624013900757
(lp233
F-0.19546505888595345
aF-0.69376164791631512
asF8.1043460369110107
(lp234
F-0.026421141229751571
aF0.87237007265196409
asF4.0524249076843262
(lp235
F0.092086080177745722
aF-0.081174943108426809
asF8.598351001739502
(lp236
F0.057228317292543317
aF0.44424638464337274
asF13.301506996154785
(lp237
F-0.065002798659485425
aF-0.035241944014330853
asF23.465183019638062
(lp238
F-0.030634992693753953
aF0.054102311772363909
asF11.267112016677856
(lp239
F0.12944053358070245
aF0.20621563184332253
asF3.7301430702209473
(lp240
F-0.0069658062825077695
aF-0.00088888187508680922
asF22.700115919113159
(lp241
F-0.080126421050109128
aF-0.8161249731181035
asF7.6305570602416992
(lp242
F-0.10056629265586599
aF0.76537669040860878
asF12.567360877990723
(lp243
F-0.0070626409753983474
aF0.83449229470169961
asF4.4052119255065918
(lp244
F0.32946527621019994
aF-0.034400388231612081
asF7.3314969539642334
(lp245
F-0.0033071166185394962
aF0.65457397906112191
asF12.398422956466675
(lp246
F0.13799911456986735
aF1.0558751336652679
asF21.196290969848633
(lp247
F-0.14512455083040265
aF0.53927635918794559
asF20.908155918121338
(lp248
F-0.023245984404158003
aF0.83450485357699045
asF16.665164947509766
(lp249
F-0.034691379136515113
aF0.85525444347303836
asF8.073091983795166
(lp250
F-0.026421141229751571
aF0.87237007265196409
asF22.971762895584106
(lp251
F0.035648765667959159
aF-0.66577798266267696
asF3.1378030776977539
(lp252
F-0.019057846844694942
aF-0.0024896253906950688
asF23.028877973556519
(lp253
F0.060528514359925178
aF-0.65265721785817565
asF10.86058497428894
(lp254
F-0.021066900970044974
aF-0.48983812419320422
asF9.903325080871582
(lp255
F0.016351008930869951
aF-0.62857537997779189
asF14.163640975952148
(lp256
F-0.070613054262105512
aF-1.008997574960885
asF9.03597092628479
(lp257
F0.15277187651307883
aF-0.69386707467822539
asF11.65236496925354
(lp258
F-0.063708920652254211
aF0.55503817546473266
asF19.112560987472534
(lp259
F0.010917162926982246
aF-0.5056028157859257
asF0.36335587501525879
(lp260
F0.0089659284828967206
aF0.0011441111591814115
asF17.799011945724487
(lp261
F0.32458935260327143
aF-0.76402958316385783
asF13.270500898361206
(lp262
F-0.14023016795738574
aF0.12056203741338019
asF15.466820955276489
(lp263
F-0.081660685265569077
aF0.14847401625656689
asF17.090939998626709
(lp264
F0.14337991881798798
aF0.30353374232475844
asF19.504699945449829
(lp265
F0.059341314214793918
aF-0.25925957605446603
asF8.5008339881896973
(lp266
F0.12019393564419534
aF0.58453585367878003
asF3.8992950916290283
(lp267
F0.098284099961892982
aF-0.097370905197370641
asF5.9022588729858398
(lp268
F0.058518643380312305
aF-1.0423567149375039
asF8.3643250465393066
(lp269
F0.19986137909229337
aF0.67007563064523201
asF10.087405920028687
(lp270
F-0.06555096606623495
aF-0.60273642564180552
asF5.001410961151123
(lp271
F-0.20423741058928746
aF-0.71420822006697637
asF21.739394903182983
(lp272
F-0.012045519287905152
aF-0.30176989285414491
asF5.403393030166626
(lp273
F0.15917815122893925
aF-0.9781836014789882
asF16.481641054153442
(lp274
F-0.0037948348546198857
aF0.85878845181083407
asF20.03589391708374
(lp275
F-0.079446531835316248
aF0.45416919433458108
asF7.8792669773101807
(lp276
F-0.094472798450360967
aF0.82713637245873339
asF10.629185914993286
(lp277
F-0.015720937214610063
aF-0.70826678224676765
asF8.9640109539031982
(lp278
F0.26819827815788344
aF-0.85612256766813188
asF16.629884958267212
(lp279
F-0.034691379136515113
aF0.85525444347303836
asF11.552390098571777
(lp280
F0.10658131212176547
aF0.50791219212830341
asF10.394248962402344
(lp281
F-0.033790185319271596
aF-0.78602660308133743
asF20.332016944885254
(lp282
F-0.11514986648281403
aF0.75219061329592052
asF3.1686460971832275
(lp283
F-0.019057846844694942
aF-0.0024896253906950688
asF4.1408209800720215
(lp284
F0.1250333348171252
aF0.10152092431461943
asF6.2288670539855957
(lp285
F-0.044854928183260985
aF-0.867391549221455
asF12.437144041061401
(lp286
F-0.014169577043340653
aF1.0217071204235282
asF5.1980719566345215
(lp287
F0.21305461854560748
aF-0.89471835828957391
asF0.75195097923278809
(lp288
F0.004644181875711105
aF0.00060799440032324975
asF15.263408899307251
(lp289
F-0.018401234832906413
aF-0.14068923257490831
asF2.1034269332885742
(lp290
F0.0074026980970808599
aF0.00097137870643246868
asF1.0942800045013428
(lp291
F0.0086555556767602248
aF0.0011303857056605918
asF9.4971380233764648
(lp292
F-0.11460507927758187
aF-0.45971900360146811
asF12.101049900054932
(lp293
F0.058204057963997413
aF0.85285274821893631
asF5.6313169002532959
(lp294
F0.10426237553630284
aF-0.71979087151520482
asF15.365447998046875
(lp295
F-0.045961312161941409
aF0.095662056659583911
asF18.931598901748657
(lp296
F0.025607061663335581
aF-0.60845622693857315
asF16.229688882827759
(lp297
F-0.16994044279035217
aF0.85457099835811301
asF11.243335008621216
(lp298
F0.12944053358070245
aF0.20621563184332253
asF5.2955188751220703
(lp299
F0.086712769908611459
aF-0.7558746531444176
asF13.375294923782349
(lp300
F0.015589559991736404
aF-0.15157708081745078
asF7.5311610698699951
(lp301
F-0.17473723171224642
aF0.80258811240383998
asF19.064883947372437
(lp302
F0.016730673816909028
aF-0.53622529941286567
asF11.864218950271606
(lp303
F-0.0021704442513445672
aF0.75647173517462263
asF18.332175970077515
(lp304
F0.12975481636635883
aF-0.60172072933656062
asF20.099334955215454
(lp305
F-0.074043928225742253
aF0.5460959333967782
asF6.2684049606323242
(lp306
F-0.0094186188284935274
aF-0.93254233682061249
asF4.1023299694061279
(lp307
F0.26726026488006022
aF-0.06766762874837319
asF12.467859029769897
(lp308
F-0.014169577043340653
aF1.0217071204235282
asF4.3367359638214111
(lp309
F0.30026433119889878
aF0.068908616026158831
asF22.207834005355835
(lp310
F-0.067305104469089397
aF-0.71278496351996723
asF15.696362972259521
(lp311
F-0.092479772911859104
aF0.42926895118623287
asF15.874000072479248
(lp312
F-0.17916972643958462
aF0.61136657147169848
asF8.1612179279327393
(lp313
F-0.093099798092170935
aF0.78981087364311164
asF0.4325098991394043
(lp314
F-0.0061781824049439091
aF-0.00080540145662823183
asF8.3337559700012207
(lp315
F0.11152150039810708
aF0.76448732849322432
asF21.782320022583008
(lp316
F-0.056580208089273595
aF-0.36954021897215356
asF21.429904937744141
(lp317
F0.037917651389215719
aF0.26911387850353446
asF9.1015200614929199
(lp318
F0.19036696010154769
aF-0.7643215044328634
asF5.3726749420166016
(lp319
F0.15917815122893925
aF-0.9781836014789882
asF12.177753925323486
(lp320
F0.018970509444046428
aF0.88440028347878219
asF18.861002922058105
(lp321
F0.048350046805852809
aF-0.71827257451298421
asF10.239598989486694
(lp322
F0.04495569825355434
aF-0.77536296864690657
asF9.8641889095306396
(lp323
F-0.10051927027283836
aF-0.53169959427041291
asF13.145910978317261
(lp324
F-0.045396994060486778
aF0.37631495729606129
asF0.33429408073425293
(lp325
F-0.0022255030712957299
aF-0.00031138490934491474
asF17.89488697052002
(lp326
F0.3011381517677143
aF-0.72325824025527219
asF11.601523876190186
(lp327
F-0.063708920652254211
aF0.55503817546473266
asF20.704910039901733
(lp328
F-0.066496576421657447
aF0.92620361840287546
asF8.6290690898895264
(lp329
F0.057228317292543317
aF0.44424638464337274
asF2.4079580307006836
(lp330
F-0.013359744701649023
aF-0.0017272217165350237
asF5.4659559726715088
(lp331
F0.23772623312416694
aF-0.87576335090506052
asF3.8707420825958252
(lp332
F-0.030218681963219973
aF0.012402064600342875
asF8.5647709369659424
(lp333
F0.089295031761101915
aF0.47735700937853187
asF15.901715993881226
(lp334
F-0.16851627064786809
aF0.68588653185374149
asF19.965307950973511
(lp335
F-0.10562076728954201
aF0.41743411445074985
asF14.396375894546509
(lp336
F-0.073553612925182518
aF-0.96329661937653277
asF7.7001609802246094
(lp337
F-0.11409426676748416
aF0.74806093275045105
asF14.732089996337891
(lp338
F-0.059874558124484598
aF-0.78491625219543526
asF7.2011408805847168
(lp339
F-0.088456812387471218
aF0.52439608710828889
asF0.0015459060668945312
(lp340
F-0.0025038404710435802
aF-0.00032212581919591996
asF4.7942359447479248
(lp341
F0.61303957759214056
aF-0.095207004653772187
asF12.935914993286133
(lp342
F0.058085930467434571
aF0.58897700240830742
asF16.196274042129517
(lp343
F-0.18233724976726703
aF0.88843780705773723
asF3.6295020580291748
(lp344
F0.0025569199845178726
aF0.00033568583813674773
asF5.2316329479217529
(lp345
F0.21305461854560748
aF-0.89471835828957391
asF2.3667559623718262
(lp346
F0.011969856247283047
aF0.001558552430520505
asF21.027611017227173
(lp347
F-0.073597990217701456
aF0.74363448307522695
asF13.738347053527832
(lp348
F-0.060438984781944698
aF-0.666229497639653
asF4.5306880474090576
(lp349
F0.38578778208597259
aF-0.018544009308755702
asF15.230385065078735
(lp350
F-0.070418376271304844
aF-0.20183493180306697
asF18.72998309135437
(lp351
F0.068032070211195297
aF-0.79917614081103938
asF5.6062049865722656
(lp352
F0.15052899078330378
aF-0.8963154823427486
asF1.6975550651550293
(lp353
F-0.0010612297238876724
aF-0.00013858827144337443
asF3.2621669769287109
(lp354
F0.0080803187746206935
aF0.0010403978321880992
asF17.14411997795105
(lp355
F0.21649365752939509
aF0.22081874759603576
asF21.562491893768311
(lp356
F-0.028340559606025273
aF0.045988174889472225
asF2.4629089832305908
(lp357
F-0.025107345038216537
aF-0.003268687440965905
asF15.629498958587646
(lp358
F-0.096677855121047596
aF0.33636164598734619
asF20.564754962921143
(lp359
F-0.010622141491362813
aF0.8872826903412252
asF8.8653950691223145
(lp360
F0.5730830280216247
aF-1.0579043342771688
asF14.674071073532104
(lp361
F-0.03156134480763928
aF-0.81345507690309304
asF18.367341995239258
(lp362
F0.12975481636635883
aF-0.60172072933656062
asF18.130451917648315
(lp363
F0.15830246401393253
aF-0.56200172926917225
asF18.765549898147583
(lp364
F0.070027565419877716
aF-0.79132489805143169
asF5.9652040004730225
(lp365
F0.084462436301285443
aF-0.96356594042310584
asF17.006843090057373
(lp366
F0.15256776628627375
aF0.39180176269089834
asF6.1292819976806641
(lp367
F0.002119796634449729
aF-0.9203148059602656
asF6.8297679424285889
(lp368
F-0.11295789673002213
aF-0.037463225439488393
asF1.9332759380340576
(lp369
F-0.0041873096213747157
aF-0.00053460361513535295
asF13.622978925704956
(lp370
F-0.18045246699988798
aF-0.38904811565603559
asF18.262809991836548
(lp371
F0.12037778537929628
aF-0.6061929935244873
asF22.863265037536621
(lp372
F-0.04031876498107307
aF-0.78577649324079801
asF19.229537963867188
(lp373
F0.029776569337103351
aF-0.42232861057307247
asF16.909929037094116
(lp374
F0.13656881248707087
aF0.51625687167822665
asF8.2627220153808594
(lp375
F-0.15942084553035801
aF0.78279543315759326
asF16.273645877838135
(lp376
F-0.16994044279035217
aF0.85457099835811301
asF23.200754880905151
(lp377
F0.11009332531266262
aF-0.48053829379722868
asF22.231549024581909
(lp378
F-0.014915031651201567
aF-0.76500720026524915
asF17.831438064575195
(lp379
F0.3011381517677143
aF-0.72325824025527219
asF9.8035750389099121
(lp380
F-0.059962324668726974
aF-0.55241527789827527
asF5.0688319206237793
(lp381
F0.12592862846089625
aF-0.75257829795075437
asF0.070884943008422852
(lp382
F0.010664983539155019
aF0.0013892747819538888
asF21.978410005569458
(lp383
F-0.052637029276457178
aF-0.55894469375944889
asF14.066804885864258
(lp384
F-0.18631930241561109
aF-0.79771490730808914
asF16.797044992446899
(lp385
F0.092400070900349268
aF0.6418683406056489
asF13.443819999694824
(lp386
F-0.09879852373309389
aF-0.1676189643427021
asF0.81744599342346191
(lp387
F0.0062472182719081719
aF0.00081178858576989887
asF11.100879907608032
(lp388
F-0.0070516110717046866
aF-0.057102176065505911
asF10.206867933273315
(lp389
F0.019157845035899193
aF-0.72212175194972583
asF22.015619993209839
(lp390
F-0.068277753648250894
aF-0.57983361912653508
asF12.066854953765869
(lp391
F0.058204057963997413
aF0.85285274821893631
asF1.1298720836639404
(lp392
F-0.0060586272163111188
aF-0.00081260300867707453
asF15.395837068557739
(lp393
F-0.045961312161941409
aF0.095662056659583911
asF20.400296926498413
(lp394
F-0.15169881305217497
aF0.75843624513305252
asF10.963141918182373
(lp395
F0.15183776545028235
aF-0.31853717771960954
asF18.006392955780029
(lp396
F0.13535980871033937
aF-0.56171113708154474
asF13.334069013595581
(lp397
F-0.065002798659485425
aF-0.035241944014330853
asF5.4373059272766113
(lp398
F0.23772623312416694
aF-0.87576335090506052
asF7.163071870803833
(lp399
F-0.061184416825350009
aF0.49255020347054224
asF2.2039589881896973
(lp400
F-0.013621531759912223
aF-0.0017807284633130837
asF22.646939039230347
(lp401
F-0.012996052067231395
aF-0.90451852829189328
asF21.096422910690308
(lp402
F-0.13999234149614431
aF0.66159707745492657
asF21.700538873672485
(lp403
F0.016692064440427486
aF-0.19101327635883397
asF12.49596905708313
(lp404
F0.010372767032393817
aF0.95414247426506293
asF7.3032729625701904
(lp405
F-0.31240784682582273
aF0.6233525884228508
asF9.2108728885650635
(lp406
F0.075410528674450472
aF-0.68226540106547018
asF2.8297688961029053
(lp407
F-0.00028144212909311447
aF-3.8187933108828342e-05
asF13.480623006820679
(lp408
F-0.10760786431413313
aF-0.23368017904319854
asF12.13420295715332
(lp409
F0.018970509444046428
aF0.88440028347878219
asF18.03079891204834
(lp410
F0.13535980871033937
aF-0.56171113708154474
asF20.438620090484619
(lp411
F-0.12923932582694334
aF0.74046346196519253
asF12.037189960479736
(lp412
F-0.079116005338210768
aF0.96735576271579859
asF22.729227066040039
(lp413
F-0.080126421050109128
aF-0.8161249731181035
asF11.395868062973022
(lp414
F-0.024345473409528529
aF0.34011347500282307
asF21.370517015457153
(lp415
F-0.0456323048266494
aF0.36558842172079875
asF18.063064098358154
(lp416
F0.066370928021817543
aF-0.51773508685205705
asF1.2298650741577148
(lp417
F-0.0063507307365767663
aF-0.00081296533728443087
asF15.52985405921936
(lp418
F-0.050431450364106484
aF0.24832335221761892
asF11.706018924713135
(lp419
F0.007669013464622676
aF0.64661158144779218
asF6.799436092376709
(lp420
F-0.096660158669382865
aF-0.063689476909193077
asF0.70480704307556152
(lp421
F0.004644181875711105
aF0.00060799440032324975
asF9.764477014541626
(lp422
F-0.059962324668726974
aF-0.55241527789827527
asF2.7293999195098877
(lp423
F-0.002128557188785454
aF-0.00029429574391204479
asF20.261530876159668
(lp424
F-0.21424648383815864
aF0.67678267010245474
asF22.504756927490234
(lp425
F0.020081312717744285
aF-0.9318901414057843
asF16.967060089111328
(lp426
F0.16263139231195325
aF0.44112383808439726
asF8.7632970809936523
(lp427
F1.3337433675664316
aF-1.5710443778259797
asF0.10141801834106445
(lp428
F0.010664983539155019
aF0.0013892747819538888
asF5.7654280662536621
(lp429
F0.080733233077580735
aF-0.9709916034446856
asF7.4739229679107666
(lp430
F-0.14147104535663418
aF0.69347387356785695
asF9.2300879955291748
(lp431
F0.075410528674450472
aF-0.68226540106547018
asF17.162494897842407
(lp432
F0.33844351679373302
aF-0.012526914268455341
asF20.796895027160645
(lp433
F-0.0098802522748998034
aF0.86363774408659599
asF1.3003470897674561
(lp434
F-0.021325149908743256
aF-0.002787522139016973
asF9.4653570652008057
(lp435
F-0.11460507927758187
aF-0.45971900360146811
asF19.001991987228394
(lp436
F-0.036665105200127751
aF-0.56576672617316726
asF7.8586459159851074
(lp437
F-0.094472798450360967
aF0.82713637245873339
asF13.900901079177856
(lp438
F-0.080773573031238832
aF-0.77681740933530707
asF12.365089893341064
(lp439
F0.1224803305885139
aF0.9843685598994546
asF23.330692052841187
(lp440
F0.040743112836518394
aF-0.21087194210446963
asF17.46648097038269
(lp441
F0.29512358034963548
aF-0.31303695640595597
asF13.795939922332764
(lp442
F-0.15556092132757179
aF-0.66061518210803893
asF23.413722038269043
(lp443
F-0.00092140512255355078
aF-0.063275407688364815
asF2.8789398670196533
(lp444
F-0.00028144212909311447
aF-3.8187933108828342e-05
asF2.3383059501647949
(lp445
F0.011969856247283047
aF0.001558552430520505
asF15.49517297744751
(lp446
F-0.081660685265569077
aF0.14847401625656689
asF11.434449911117554
(lp447
F-0.04670592559406582
aF0.44086480338042133
asF20.890548944473267
(lp448
F-0.067708963066598446
aF0.80096652152090142
asF19.705811977386475
(lp449
F0.02259501432241269
aF0.067914437227043198
asF3.7019999027252197
(lp450
F-0.0036106601014081509
aF-0.00045220014641065675
asF11.302430868148804
(lp451
F0.074023630851912992
aF0.26627578379497185
asF19.529896974563599
(lp452
F0.014021549528244859
aF-0.21069186344638227
asF14.230517864227295
(lp453
F-0.15552018565309644
aF-0.90504018449269918
asF4.3037099838256836
(lp454
F0.25156381616444645
aF0.044082050419773158
asF15.819041013717651
(lp455
F-0.095217570716373753
aF0.50758206586851207
asF11.975104093551636
(lp456
F-0.14883069383466802
aF0.76792392071235915
asF20.361495971679688
(lp457
F-0.11514986648281403
aF0.75219061329592052
asF19.163773059844971
(lp458
F0.037041951279708031
aF-0.46963845529611248
asF10.331902027130127
(lp459
F-0.033790185319271596
aF-0.78602660308133743
asF15.311048030853271
(lp460
F-0.0065064753690266021
aF-0.0025258994396818168
asF20.961171865463257
(lp461
F-0.15082943784946881
aF0.80203580690401155
asF8.2981059551239014
(lp462
F-0.061485131283084596
aF0.71389863636707784
asF23.299069881439209
(lp463
F0.10432355891892062
aF-0.32181393546404269
asF5.0995819568634033
(lp464
F0.12592862846089625
aF-0.75257829795075437
asF3.8303210735321045
(lp465
F0.025569251506409665
aF0.021426725802589839
asF8.0326359272003174
(lp466
F0.023416809685986237
aF0.86383210488680695
asF4.8945150375366211
(lp467
F0.61303957759214056
aF-0.095207004653772187
asF14.034770011901855
(lp468
F-0.19546505888595345
aF-0.69376164791631512
asF7.8220388889312744
(lp469
F-0.22427395782211895
aF0.86973962916482173
asF12.775207042694092
(lp470
F0.032835467056343527
aF0.74602582583323274
asF0.97319602966308594
(lp471
F-0.010381455700489921
aF-0.0013241612803842129
asF2.2868399620056152
(lp472
F0.0066123023966752799
aF0.00085159202829195838
asF5.0369420051574707
(lp473
F0.12592862846089625
aF-0.75257829795075437
asF4.4891059398651123
(lp474
F0.36704204639569743
aF0.068413509435547915
asF22.596060037612915
(lp475
F-0.012996052067231395
aF-0.90451852829189328
asF18.604527950286865
(lp476
F0.056424787232093848
aF-0.66800604860697188
asF21.23235297203064
(lp477
F-0.14187637361341718
aF0.45967052084516158
asF15.082614898681641
(lp478
F0.017197173288832922
aF-0.3877083284908997
asF3.1010839939117432
(lp479
F0.0046860759945154158
aF0.00063265845413821545
asF8.4790279865264893
(lp480
F0.12019393564419534
aF0.58453585367878003
asF3.5402369499206543
(lp481
F-0.0075458813370526054
aF-0.0009407335119407177
asF12.697962999343872
(lp482
F0.032835467056343527
aF0.74602582583323274
asF16.100436925888062
(lp483
F-0.16606448205056623
aF0.76751440170822882
asF2.608712911605835
(lp484
F-0.013337005858848752
aF-0.0017302294913487651
asF12.006005048751831
(lp485
F-0.079116005338210768
aF0.96735576271579859
asF0.90401601791381836
(lp486
F0.0085267239324093441
aF0.0011162608612737181
asF14.650264978408813
(lp487
F-0.091434723782094898
aF-0.87500230252231326
asF6.5685760974884033
(lp488
F0.063494533468259895
aF-0.33932805796861298
asF5.6691498756408691
(lp489
F0.10426237553630284
aF-0.71979087151520482
asF11.20745587348938
(lp490
F-0.010741384131273506
aF0.12060596379738818
asF0.033329963684082031
(lp491
F-0.0025038404710435802
aF-0.00032212581919591996
asF1.3769509792327881
(lp492
F-0.014127717526776391
aF-0.001828867756134563
asF7.0697610378265381
(lp493
F-0.11581674563352097
aF0.30386497980108712
asF11.565284013748169
(lp494
F-0.065918458782240799
aF0.55765273552408234
asF14.266661882400513
(lp495
F-0.19031003533774363
aF-0.84684015628130926
asF10.902497053146362
(lp496
F0.29514929966878906
aF-0.46922155726732839
asF7.672935962677002
(lp497
F-0.11409426676748416
aF0.74806093275045105
asF19.305149078369141
(lp498
F0.0073415510578266653
aF-0.37142346093899914
asF7.1305019855499268
(lp499
F-0.05901289468018428
aF0.38967163921387593
asF20.297293901443481
(lp500
F-0.13013835060940193
aF0.76703396139093261
asF1.5308670997619629
(lp501
F-0.016820414638217519
aF-0.0021671710035136645
asF14.831424951553345
(lp502
F-0.028235204674728745
aF-0.68441988707606793
asF8.1337640285491943
(lp503
F-0.093099798092170935
aF0.78981087364311164
asF14.302968978881836
(lp504
F-0.19031003533774363
aF-0.84684015628130926
asF10.032481908798218
(lp505
F-0.030668154081043932
aF-0.65189865954524262
asF16.830270051956177
(lp506
F0.098165893968922391
aF0.57502678529362872
asF22.666423082351685
(lp507
F-0.10336660899684627
aF-0.8041064241867778
asF3.6797740459442139
(lp508
F-0.0036106601014081509
aF-0.00045220014641065675
asF17.231464862823486
(lp509
F0.31499743516122447
aF-0.019761149569769799
asF16.727866888046265
(lp510
F0.04493544560676957
aF0.79395784037036288
asF15.11847996711731
(lp511
F0.017197173288832922
aF-0.3877083284908997
asF0.83094000816345215
(lp512
F0.0062472182719081719
aF0.00081178858576989887
asF14.499660968780518
(lp513
F-0.077477494197485744
aF-0.94734486910784521
asF14.096921920776367
(lp514
F-0.18631930241561109
aF-0.79771490730808914
asF6.4295940399169922
(lp515
F-0.085534102536558271
aF-0.67972779034789266
asF9.7074069976806641
(lp516
F-0.12862171065208078
aF-0.35831782706238091
asF6.9141080379486084
(lp517
F0.019937395535230024
aF0.16833935006955641
asF22.329802989959717
(lp518
F-0.060146066387172722
aF-0.81546170752241465
asF22.574586868286133
(lp519
F0.07322171821107118
aF-1.0067329000636844
asF0.39684605598449707
(lp520
F-0.0061781824049439091
aF-0.00080540145662823183
asF5.9271249771118164
(lp521
F0.058518643380312305
aF-1.0423567149375039
asF16.498008966445923
(lp522
F-0.0037948348546198857
aF0.85878845181083407
asF10.49596905708313
(lp523
F0.052627622043254101
aF-0.83111645046884308
asF6.3662509918212891
(lp524
F-0.095415945201430777
aF-0.75954001377552216
asF6.3973510265350342
(lp525
F-0.085534102536558271
aF-0.67972779034789266
asF3.7805800437927246
(lp526
F-0.0069658062825077695
aF-0.00088888187508680922
asF15.564586877822876
(lp527
F-0.050431450364106484
aF0.24832335221761892
asF20.080900907516479
(lp528
F-0.074043928225742253
aF0.5460959333967782
asF10.939857959747314
(lp529
F0.29514929966878906
aF-0.46922155726732839
asF4.861583948135376
(lp530
F0.61303957759214056
aF-0.095207004653772187
asF19.728275060653687
(lp531
F0.02259501432241269
aF0.067914437227043198
asF14.897371053695679
(lp532
F-0.012207427829187795
aF-0.59791118115152275
asF8.3938238620758057
(lp533
F0.19986137909229337
aF0.67007563064523201
asF16.335015058517456
(lp534
F0.048306921219944982
aF0.96586774967236921
asF1.5653719902038574
(lp535
F-0.0078703028810965213
aF-0.0010181587799467917
asF1.0623030662536621
(lp536
F0.0086555556767602248
aF0.0011303857056605918
asF23.237436056137085
(lp537
F0.12160506290022434
aF-0.41773264795929232
asF10.580075979232788
(lp538
F0.061631968976990519
aF-0.79492024095649627
asF1.6653459072113037
(lp539
F-0.0010612297238876724
aF-0.00013858827144337443
asF10.620541095733643
(lp540
F-0.015720937214610063
aF-0.70826678224676765
asF9.6641280651092529
(lp541
F-0.12862171065208078
aF-0.35831782706238091
asF0.19962906837463379
(lp542
F-0.010577953866147658
aF-0.0013726925885324936
asF19.999422073364258
(lp543
F-0.10562076728954201
aF0.41743411445074985
asF19.766542911529541
(lp544
F-0.048751800467177232
aF0.13334316523290723
asF2.6643109321594238
(lp545
F0.008087301412631127
aF0.0010113740131823255
asF18.164635896682739
(lp546
F0.17127859586332411
aF-0.5525181881370792
asF0.87012600898742676
(lp547
F0.021678676500105357
aF0.002824057389036367
asF8.6605570316314697
(lp548
F0.057228317292543317
aF0.44424638464337274
asF4.6310830116271973
(lp549
F0.46462273491809486
aF-0.057546367415452271
asF5.8386180400848389
(lp550
F0.070854803598869559
aF-0.83554781746445128
asF22.169277906417847
(lp551
F-0.067305104469089397
aF-0.71278496351996723
asF8.0000579357147217
(lp552
F0.023416809685986237
aF0.86383210488680695
asF10.464422941207886
(lp553
F0.063906097008723642
aF-0.80815575668451767
asF20.206115961074829
(lp554
F-0.071043278563497195
aF0.59494117527655532
asF19.670793056488037
(lp555
F0.057935737030339794
aF-0.12117659128641095
asF2.0296730995178223
(lp556
F-0.0010019889462035327
aF-0.00012535668538545008
asF16.564325094223022
(lp557
F0.0020276080162016014
aF0.81435211014433861
asF13.563853979110718
(lp558
F-0.10760786431413313
aF-0.23368017904319854
asF0.66797804832458496
(lp559
F-0.0016237243557787116
aF-0.00023063462688093558
asF13.216497898101807
(lp560
F-0.12505520128052727
aF0.234846570766232
asF10.400892019271851
(lp561
F-0.00074646880046047581
aF-0.77016868874936428
asF0.296051025390625
(lp562
F-0.0022255030712957299
aF-0.00031138490934491474
asF11.776989936828613
(lp563
F0.015211172556546439
aF0.66887239149589983
asF8.794044017791748
(lp564
F1.3337433675664316
aF-1.5710443778259797
asF22.0417160987854
(lp565
F-0.068277753648250894
aF-0.57983361912653508
asF22.068435907363892
(lp566
F0.023832598705553792
aF-0.7197337048732616
asF21.133013010025024
(lp567
F-0.12375460876036293
aF0.60636040192991325
asF18.968721866607666
(lp568
F0.025607061663335581
aF-0.60845622693857315
asF15.844011068344116
(lp569
F-0.17916972643958462
aF0.61136657147169848
asF17.769068002700806
(lp570
F0.32458935260327143
aF-0.76402958316385783
asF2.4343829154968262
(lp571
F-0.025107345038216537
aF-0.003268687440965905
asF0.60172486305236816
(lp572
F0.0010963235713747344
aF0.00015107122657729145
asF5.7993619441986084
(lp573
F0.035201265694563756
aF-0.93220115639087631
asF13.630582094192505
(lp574
F-0.18045246699988798
aF-0.38904811565603559
asF16.37693190574646
(lp575
F0.048306921219944982
aF0.96586774967236921
asF4.5881838798522949
(lp576
F0.38578778208597259
aF-0.018544009308755702
asF21.501358985900879
(lp577
F0.11978721153504215
aF0.12093876802983855
asF8.9001090526580811
(lp578
F0.5730830280216247
aF-1.0579043342771688
asF9.1576929092407227
(lp579
F0.19036696010154769
aF-0.7643215044328634
asF23.164630889892578
(lp580
F0.11009332531266262
aF-0.48053829379722868
asF1.8736860752105713
(lp581
F-0.0055610144418635496
aF-0.00070825362546544696
asF17.743036985397339
(lp582
F0.29489457634359961
aF-0.62574946605415271
asF8.8316450119018555
(lp583
F0.60652602047721926
aF-1.2447019914526587
asF22.298043966293335
(lp584
F-0.047094300636616092
aF-0.78845883673466055
asF19.830041885375977
(lp585
F-0.043703103752950626
aF0.22754649449451625
asF17.363306999206543
(lp586
F0.22456503220671314
aF-0.11086528639551238
asF7.6072299480438232
(lp587
F-0.10056629265586599
aF0.76537669040860878
asF17.496448993682861
(lp588
F0.29512358034963548
aF-0.31303695640595597
asF0.13550996780395508
(lp589
F0.0061041839138829381
aF0.00079361320069392359
asF5.8814160823822021
(lp590
F0.070854803598869559
aF-0.83554781746445128
asF21.466784954071045
(lp591
F0.037917651389215719
aF0.26911387850353446
asF14.365463972091675
(lp592
F-0.080057533480255974
aF-0.99880262653953289
asF16.062525987625122
(lp593
F-0.14217926072908038
aF0.78321877074906454
asF20.510077953338623
(lp594
F-0.041592024342278669
aF0.91092293110647504
asF7.7297000885009766
(lp595
F-0.073410138998535879
aF0.8622148519078574
asF8.6935930252075195
(lp596
F0.057228317292543317
aF0.44424638464337274
asF11.934118032455444
(lp597
F0.069306652586455963
aF0.79957032004694528
asF16.763392925262451
(lp598
F0.068732233646686125
aF0.69334765159900513
asF21.606353044509888
(lp599
F-0.028340559606025273
aF0.045988174889472225
asF13.266501903533936
(lp600
F-0.12505520128052727
aF0.234846570766232
asF3.0626049041748047
(lp601
F0.00407703545363719
aF0.00054613404771499535
asF7.367779016494751
(lp602
F-0.0033071166185394962
aF0.65457397906112191
asF2.2978498935699463
(lp603
F-0.0099050435499206113
aF-0.0012909810664123349
asF22.541323900222778
(lp604
F0.020081312717744285
aF-0.9318901414057843
asF22.36031699180603
(lp605
F-0.060146066387172722
aF-0.81546170752241465
asF9.6287639141082764
(lp606
F-0.11942771778526491
aF-0.44187636129398222
asF1.2797160148620605
(lp607
F-0.021325149908743256
aF-0.002787522139016973
asF22.996150016784668
(lp608
F0.035648765667959159
aF-0.66577798266267696
asF4.0710160732269287
(lp609
F0.18609098438918456
aF-0.084522291836455737
asF2.2278590202331543
(lp610
F-0.013621531759912223
aF-0.0017807284633130837
asF7.5716619491577148
(lp611
F-0.17473723171224642
aF0.80258811240383998
asF12.729207038879395
(lp612
F0.032835467056343527
aF0.74602582583323274
asF14.462538957595825
(lp613
F-0.13788835004484762
aF-0.94910758272451434
asF4.207366943359375
(lp614
F0.30769637623806134
aF-0.021187935219515591
asF15.969467878341675
(lp615
F-0.13827481927618146
aF0.70465816536754367
asF17.863888025283813
(lp616
F0.3011381517677143
aF-0.72325824025527219
asF21.530035018920898
(lp617
F0.11978721153504215
aF0.12093876802983855
asF11.006991863250732
(lp618
F0.030333787197868306
aF-0.17790199200420859
asF13.065356969833374
(lp619
F-0.023913415269378867
aF0.44174604520042315
asF0.99808907508850098
(lp620
F-0.012173775002111611
aF-0.0015739888497411409
asF19.196007966995239
(lp621
F0.037041951279708031
aF-0.46963845529611248
asF13.696537971496582
(lp622
F-0.092467758894956703
aF-0.66811216049284006
asF17.596231937408447
(lp623
F0.43367186102405819
aF-0.61411605540533809
asF20.671779870986938
(lp624
F0.015188009574456833
aF0.98943184721869293
asF12.268491983413696
(lp625
F0.16399198203973758
aF0.96318558117086317
asF16.596417903900146
(lp626
F-0.010319475764088081
aF0.90269665678055289
asF1.9959499835968018
(lp627
F0.012649644685080338
aF0.0016063806342285056
asF20.243160963058472
(lp628
F-0.21424648383815864
aF0.67678267010245474
asF2.5857419967651367
(lp629
F-0.011956916481899803
aF-0.0015424134132685314
asF1.7379279136657715
(lp630
F0.0050974900160104374
aF0.00066436438809041654
asF10.268660068511963
(lp631
F0.04495569825355434
aF-0.77536296864690657
asF10.695502996444702
(lp632
F0.028120184148167998
aF-0.6099884315139521
asF23.063443899154663
(lp633
F0.059986955392674804
aF-0.58762952933439416
asF12.867599010467529
(lp634
F0.076174363750804455
aF0.72395392345697818
asF18.469851970672607
(lp635
F0.080915690090083467
aF-0.63172639866368441
asF3.4087109565734863
(lp636
F0.0019396264343887082
aF0.00023306085786615002
asF7.9399049282073975
(lp637
F-0.025692153335341458
aF0.81642357270433219
asF2.7958269119262695
(lp638
F-0.017559621045908597
aF-0.0022752130170339835
asF12.83053994178772
(lp639
F0.050508003598441834
aF0.7265157571874219
asF18.210371971130371
(lp640
F0.17127859586332411
aF-0.5525181881370792
asF11.385206937789917
(lp641
F-0.024345473409528529
aF0.34011347500282307
asF6.1111559867858887
(lp642
F0.058942666219785847
aF-1.0524151400323116
asF19.406723976135254
(lp643
F0.043724211752091666
aF-0.30493326970452461
asF15.773720979690552
(lp644
F-0.095217570716373753
aF0.50758206586851207
asF14.333550930023193
(lp645
F-0.080057533480255974
aF-0.99880262653953289
asF1.3622238636016846
(lp646
F0.0037012099404272712
aF0.00048258999358949395
asF19.279721975326538
(lp647
F0.029776569337103351
aF-0.42232861057307247
asF9.5653178691864014
(lp648
F-0.11942771778526491
aF-0.44187636129398222
asF7.4010748863220215
(lp649
F-0.20295329609144483
aF0.69468877692244113
asF20.170019865036011
(lp650
F-0.071043278563497195
aF0.59494117527655532
asF21.631495952606201
(lp651
F0.073929319692243561
aF-0.037941628248035569
asF6.0056600570678711
(lp652
F0.076238175660104407
aF-1.0267913484836848
asF9.1649770736694336
(lp653
F0.19036696010154769
aF-0.7643215044328634
asF15.429789066314697
(lp654
F-0.081660685265569077
aF0.14847401625656689
asF5.1321558952331543
(lp655
F0.21969225741017459
aF-0.58885262865158849
asF14.19596791267395
(lp656
F-0.070613054262105512
aF-1.008997574960885
asF16.953218936920166
(lp657
F0.16263139231195325
aF0.44112383808439726
asF14.566987991333008
(lp658
F-0.13608394251483844
aF-0.90395545672385136
asF2.9984519481658936
(lp659
F-0.01417425687301848
aF-0.0018219618361011813
asF14.961840867996216
(lp660
F-0.012060265997603566
aF-0.5327775189262739
asF18.631491899490356
(lp661
F0.056424787232093848
aF-0.66800604860697188
asF6.1642420291900635
(lp662
F0.002119796634449729
aF-0.9203148059602656
asF6.8642909526824951
(lp663
F-0.11295789673002213
aF-0.037463225439488393
asF7.0317869186401367
(lp664
F-0.11581674563352097
aF0.30386497980108712
asF22.09837007522583
(lp665
F-0.04856017823227525
aF-0.6444536564397445
asF12.6337730884552
(lp666
F0.082250088558401019
aF0.83226657762656564
asF19.930206060409546
(lp667
F-0.0051972188074480702
aF0.33682199515419148
asF7.9695620536804199
(lp668
F-0.041981466346609583
aF0.9023068696835862
asF19.862351894378662
(lp669
F-0.043703103752950626
aF0.22754649449451625
asF18.696626901626587
(lp670
F0.068032070211195297
aF-0.79917614081103938
asF10.101372957229614
(lp671
F-0.06555096606623495
aF-0.60273642564180552
asF17.564105033874512
(lp672
F0.23453049444492766
aF-0.30560744241597992
asF16.697539091110229
(lp673
F0.04493544560676957
aF0.79395784037036288
asF3.0298528671264648
(lp674
F0.00407703545363719
aF0.00054613404771499535
asF21.079354047775269
(lp675
F-0.13999234149614431
aF0.66159707745492657
asF2.7651019096374512
(lp676
F-0.017559621045908597
aF-0.0022752130170339835
asF7.9280850887298584
(lp677
F-0.025692153335341458
aF0.81642357270433219
asF10.528783082962036
(lp678
F0.052627622043254101
aF-0.83111645046884308
asF4.4395520687103271
(lp679
F0.32946527621019994
aF-0.034400388231612081
asF11.801482915878296
(lp680
F0.015211172556546439
aF0.66887239149589983
asF0.1712949275970459
(lp681
F0.0061041839138829381
aF0.00079361320069392359
asF20.464448928833008
(lp682
F-0.041592024342278669
aF0.91092293110647504
asF19.602751970291138
(lp683
F0.057935737030339794
aF-0.12117659128641095
asF11.518985033035278
(lp684
F0.10658131212176547
aF0.50791219212830341
asF3.4476900100708008
(lp685
F-0.0088252229952892839
aF-0.001151585862430179
asF5.5315039157867432
(lp686
F0.18228356089409353
aF-0.96889890509619903
asF1.8401000499725342
(lp687
F-0.0055610144418635496
aF-0.00070825362546544696
asF3.1969730854034424
(lp688
F0.013072158923288443
aF0.0016997243641858513
asF5.3297679424285889
(lp689
F0.36067898694149031
aF-1.0785053966019127
asF19.475049018859863
(lp690
F0.059341314214793918
aF-0.25925957605446603
asF15.332259893417358
(lp691
F-0.0065064753690266021
aF-0.0025258994396818168
asF20.631612062454224
(lp692
F0.015188009574456833
aF0.98943184721869293
asF8.4403600692749023
(lp693
F-0.014576985988201591
aF0.61106170906715751
asF10.765098094940186
(lp694
F0.03310519462636103
aF-0.54964631900608785
asF11.736571073532104
(lp695
F0.007669013464622676
aF0.64661158144779218
asF0.5051569938659668
(lp696
F0.0061722047654520348
aF0.00079174060971790548
asF21.912252902984619
(lp697
F0.094175218527494872
aF-0.55568551130991717
asF13.407588005065918
(lp698
F-0.09879852373309389
aF-0.1676189643427021
asF12.31089186668396
(lp699
F-0.064983846707264953
aF0.92007514762369769
asF9.3936710357666016
(lp700
F-0.080932470714816809
aF-0.55134304298972814
asF19.432677984237671
(lp701
F0.043724211752091666
aF-0.30493326970452461
asF15.999269962310791
(lp702
F-0.17501123766846338
aF0.7551012444412174
asF4.367887020111084
(lp703
F0.30026433119889878
aF0.068908616026158831
asF12.996334075927734
(lp704
F-0.023913415269378867
aF0.44174604520042315
as.